Archive member included because of file (symbol)

/Users/ap/SDKs/nacl/pepper_31/toolchain/mac_x86_newlib/bin/../lib/gcc/x86_64-nacl/4.4.3/../../../../x86_64-nacl/lib/../lib32/libppapi_stub.a(plugin_main_irt.o)
                              (main)
/Users/ap/SDKs/nacl/pepper_31/toolchain/mac_x86_newlib/bin/../lib/gcc/x86_64-nacl/4.4.3/../../../../x86_64-nacl/lib/../lib32/libppapi_stub.a(ppapi_plugin_main.o)
                              /Users/ap/SDKs/nacl/pepper_31/toolchain/mac_x86_newlib/bin/../lib/gcc/x86_64-nacl/4.4.3/../../../../x86_64-nacl/lib/../lib32/libppapi_stub.a(plugin_main_irt.o) (PpapiPluginMain)
/Users/ap/SDKs/nacl/pepper_31/toolchain/mac_x86_newlib/bin/../lib/gcc/x86_64-nacl/4.4.3/../../../../x86_64-nacl/lib/../lib32/libppapi_stub.a(ppapi_plugin_start.o)
                              /Users/ap/SDKs/nacl/pepper_31/toolchain/mac_x86_newlib/bin/../lib/gcc/x86_64-nacl/4.4.3/../../../../x86_64-nacl/lib/../lib32/libppapi_stub.a(ppapi_plugin_main.o) (PpapiPluginStart)
/Users/ap/SDKs/nacl/pepper_31/toolchain/mac_x86_newlib/bin/../lib/gcc/x86_64-nacl/4.4.3/../../../../x86_64-nacl/lib/../lib32/libppapi_stub.a(thread_creator.o)
                              /Users/ap/SDKs/nacl/pepper_31/toolchain/mac_x86_newlib/bin/../lib/gcc/x86_64-nacl/4.4.3/../../../../x86_64-nacl/lib/../lib32/libppapi_stub.a(ppapi_plugin_start.o) (__nacl_register_thread_creator)
/Users/ap/SDKs/nacl/pepper_31/toolchain/mac_x86_newlib/bin/../lib/gcc/x86_64-nacl/4.4.3/../../../../x86_64-nacl/lib/../lib32/libpthread.a(nc_thread.o)
                              /Users/ap/SDKs/nacl/pepper_31/toolchain/mac_x86_newlib/bin/../lib/gcc/x86_64-nacl/4.4.3/../../../../x86_64-nacl/lib/../lib32/libppapi_stub.a(thread_creator.o) (pthread_join)
/Users/ap/SDKs/nacl/pepper_31/toolchain/mac_x86_newlib/bin/../lib/gcc/x86_64-nacl/4.4.3/../../../../x86_64-nacl/lib/../lib32/libpthread.a(nc_condvar.o)
                              /Users/ap/SDKs/nacl/pepper_31/toolchain/mac_x86_newlib/bin/../lib/gcc/x86_64-nacl/4.4.3/../../../../x86_64-nacl/lib/../lib32/libpthread.a(nc_thread.o) (pthread_cond_init)
/Users/ap/SDKs/nacl/pepper_31/toolchain/mac_x86_newlib/bin/../lib/gcc/x86_64-nacl/4.4.3/../../../../x86_64-nacl/lib/../lib32/libpthread.a(dynamic_annotations.o)
                              /Users/ap/SDKs/nacl/pepper_31/toolchain/mac_x86_newlib/bin/../lib/gcc/x86_64-nacl/4.4.3/../../../../x86_64-nacl/lib/../lib32/libpthread.a(nc_thread.o) (NACL_AnnotateCondVarWait)
/Users/ap/SDKs/nacl/pepper_31/toolchain/mac_x86_newlib/bin/../lib/gcc/x86_64-nacl/4.4.3/../../../../x86_64-nacl/lib/../lib32/libpthread.a(nc_mutex.o)
                              /Users/ap/SDKs/nacl/pepper_31/toolchain/mac_x86_newlib/bin/../lib/gcc/x86_64-nacl/4.4.3/../../../../x86_64-nacl/lib/../lib32/libpthread.a(nc_thread.o) (pthread_mutex_init)
/Users/ap/SDKs/nacl/pepper_31/toolchain/mac_x86_newlib/bin/../lib/gcc/x86_64-nacl/4.4.3/../../../../x86_64-nacl/lib/../lib32/libpthread.a(nc_init_irt.o)
                              /Users/ap/SDKs/nacl/pepper_31/toolchain/mac_x86_newlib/bin/../lib/gcc/x86_64-nacl/4.4.3/../../../../x86_64-nacl/lib/../lib32/libpthread.a(nc_thread.o) (__nc_futex_init)
/Users/ap/SDKs/nacl/pepper_31/toolchain/mac_x86_newlib/bin/../lib/gcc/x86_64-nacl/4.4.3/../../../../x86_64-nacl/lib/../lib32/libcrt_common.a(lib_a-environ.o)
                              /Users/ap/SDKs/nacl/pepper_31/toolchain/mac_x86_newlib/bin/../lib/gcc/x86_64-nacl/4.4.3/../../../../x86_64-nacl/lib/../lib32/libppapi_stub.a(ppapi_plugin_start.o) (environ)
/Users/ap/SDKs/nacl/pepper_31/toolchain/mac_x86_newlib/bin/../lib/gcc/x86_64-nacl/4.4.3/../../../../x86_64-nacl/lib/../lib32/libcrt_common.a(lib_a-exit.o)
                              (exit)
/Users/ap/SDKs/nacl/pepper_31/toolchain/mac_x86_newlib/bin/../lib/gcc/x86_64-nacl/4.4.3/../../../../x86_64-nacl/lib/../lib32/libcrt_common.a(lib_a-getenv.o)
                              /Users/ap/SDKs/nacl/pepper_31/toolchain/mac_x86_newlib/bin/../lib/gcc/x86_64-nacl/4.4.3/../../../../x86_64-nacl/lib/../lib32/libpthread.a(dynamic_annotations.o) (getenv)
/Users/ap/SDKs/nacl/pepper_31/toolchain/mac_x86_newlib/bin/../lib/gcc/x86_64-nacl/4.4.3/../../../../x86_64-nacl/lib/../lib32/libcrt_common.a(lib_a-getenv_r.o)
                              /Users/ap/SDKs/nacl/pepper_31/toolchain/mac_x86_newlib/bin/../lib/gcc/x86_64-nacl/4.4.3/../../../../x86_64-nacl/lib/../lib32/libcrt_common.a(lib_a-getenv.o) (_findenv_r)
/Users/ap/SDKs/nacl/pepper_31/toolchain/mac_x86_newlib/bin/../lib/gcc/x86_64-nacl/4.4.3/../../../../x86_64-nacl/lib/../lib32/libcrt_common.a(lib_a-impure.o)
                              /Users/ap/SDKs/nacl/pepper_31/toolchain/mac_x86_newlib/bin/../lib/gcc/x86_64-nacl/4.4.3/../../../../x86_64-nacl/lib/../lib32/libpthread.a(nc_thread.o) (__newlib_thread_init)
/Users/ap/SDKs/nacl/pepper_31/toolchain/mac_x86_newlib/bin/../lib/gcc/x86_64-nacl/4.4.3/../../../../x86_64-nacl/lib/../lib32/libcrt_common.a(lib_a-strlen.o)
                              /Users/ap/SDKs/nacl/pepper_31/toolchain/mac_x86_newlib/bin/../lib/gcc/x86_64-nacl/4.4.3/../../../../x86_64-nacl/lib/../lib32/libppapi_stub.a(ppapi_plugin_start.o) (strlen)
/Users/ap/SDKs/nacl/pepper_31/toolchain/mac_x86_newlib/bin/../lib/gcc/x86_64-nacl/4.4.3/../../../../x86_64-nacl/lib/../lib32/libcrt_common.a(lib_a-strncmp.o)
                              /Users/ap/SDKs/nacl/pepper_31/toolchain/mac_x86_newlib/bin/../lib/gcc/x86_64-nacl/4.4.3/../../../../x86_64-nacl/lib/../lib32/libcrt_common.a(lib_a-getenv_r.o) (strncmp)
/Users/ap/SDKs/nacl/pepper_31/toolchain/mac_x86_newlib/bin/../lib/gcc/x86_64-nacl/4.4.3/../../../../x86_64-nacl/lib/../lib32/libcrt_common.a(lib_a-__call_atexit.o)
                              /Users/ap/SDKs/nacl/pepper_31/toolchain/mac_x86_newlib/bin/../lib/gcc/x86_64-nacl/4.4.3/../../../../x86_64-nacl/lib/../lib32/libcrt_common.a(lib_a-exit.o) (__call_exitprocs)
/Users/ap/SDKs/nacl/pepper_31/toolchain/mac_x86_newlib/bin/../lib/gcc/x86_64-nacl/4.4.3/../../../../x86_64-nacl/lib/../lib32/libcrt_common.a(lib_a-envlock.o)
                              /Users/ap/SDKs/nacl/pepper_31/toolchain/mac_x86_newlib/bin/../lib/gcc/x86_64-nacl/4.4.3/../../../../x86_64-nacl/lib/../lib32/libcrt_common.a(lib_a-getenv_r.o) (__env_unlock)
/Users/ap/SDKs/nacl/pepper_31/toolchain/mac_x86_newlib/bin/../lib/gcc/x86_64-nacl/4.4.3/../../../../x86_64-nacl/lib/../lib32/libcrt_common.a(lib_a-__atexit.o)
                              /Users/ap/SDKs/nacl/pepper_31/toolchain/mac_x86_newlib/bin/../lib/gcc/x86_64-nacl/4.4.3/../../../../x86_64-nacl/lib/../lib32/libcrt_common.a(lib_a-__call_atexit.o) (__atexit_lock)
/Users/ap/SDKs/nacl/pepper_31/toolchain/mac_x86_newlib/bin/../lib/gcc/x86_64-nacl/4.4.3/../../../../x86_64-nacl/lib/../lib32/libnacl.a(_exit.o)
                              (_exit)
/Users/ap/SDKs/nacl/pepper_31/toolchain/mac_x86_newlib/bin/../lib/gcc/x86_64-nacl/4.4.3/../../../../x86_64-nacl/lib/../lib32/libnacl.a(start.o)
                              (_start)
/Users/ap/SDKs/nacl/pepper_31/toolchain/mac_x86_newlib/bin/../lib/gcc/x86_64-nacl/4.4.3/../../../../x86_64-nacl/lib/../lib32/libnacl.a(malloc.o)
                              /Users/ap/SDKs/nacl/pepper_31/toolchain/mac_x86_newlib/bin/../lib/gcc/x86_64-nacl/4.4.3/../../../../x86_64-nacl/lib/../lib32/libpthread.a(nc_thread.o) (free)
/Users/ap/SDKs/nacl/pepper_31/toolchain/mac_x86_newlib/bin/../lib/gcc/x86_64-nacl/4.4.3/../../../../x86_64-nacl/lib/../lib32/libnacl.a(nacl_irt.o)
                              /Users/ap/SDKs/nacl/pepper_31/toolchain/mac_x86_newlib/bin/../lib/gcc/x86_64-nacl/4.4.3/../../../../x86_64-nacl/lib/../lib32/libpthread.a(nc_init_irt.o) (__libnacl_mandatory_irt_query)
/Users/ap/SDKs/nacl/pepper_31/toolchain/mac_x86_newlib/bin/../lib/gcc/x86_64-nacl/4.4.3/../../../../x86_64-nacl/lib/../lib32/libnacl.a(pthread_initialize_minimal.o)
                              /Users/ap/SDKs/nacl/pepper_31/toolchain/mac_x86_newlib/bin/../lib/gcc/x86_64-nacl/4.4.3/../../../../x86_64-nacl/lib/../lib32/libpthread.a(nc_thread.o) (__pthread_initialize_minimal)
/Users/ap/SDKs/nacl/pepper_31/toolchain/mac_x86_newlib/bin/../lib/gcc/x86_64-nacl/4.4.3/../../../../x86_64-nacl/lib/../lib32/libnacl.a(nacl_read_tp.o)
                              /Users/ap/SDKs/nacl/pepper_31/toolchain/mac_x86_newlib/bin/../lib/gcc/x86_64-nacl/4.4.3/../../../../x86_64-nacl/lib/../lib32/libpthread.a(nc_thread.o) (__nacl_read_tp)
/Users/ap/SDKs/nacl/pepper_31/toolchain/mac_x86_newlib/bin/../lib/gcc/x86_64-nacl/4.4.3/../../../../x86_64-nacl/lib/../lib32/libnacl.a(mmap.o)
                              /Users/ap/SDKs/nacl/pepper_31/toolchain/mac_x86_newlib/bin/../lib/gcc/x86_64-nacl/4.4.3/../../../../x86_64-nacl/lib/../lib32/libnacl.a(malloc.o) (mmap)
/Users/ap/SDKs/nacl/pepper_31/toolchain/mac_x86_newlib/bin/../lib/gcc/x86_64-nacl/4.4.3/../../../../x86_64-nacl/lib/../lib32/libnacl.a(sched_yield.o)
                              /Users/ap/SDKs/nacl/pepper_31/toolchain/mac_x86_newlib/bin/../lib/gcc/x86_64-nacl/4.4.3/../../../../x86_64-nacl/lib/../lib32/libnacl.a(malloc.o) (sched_yield)
/Users/ap/SDKs/nacl/pepper_31/toolchain/mac_x86_newlib/bin/../lib/gcc/x86_64-nacl/4.4.3/../../../../x86_64-nacl/lib/../lib32/libnacl.a(munmap.o)
                              /Users/ap/SDKs/nacl/pepper_31/toolchain/mac_x86_newlib/bin/../lib/gcc/x86_64-nacl/4.4.3/../../../../x86_64-nacl/lib/../lib32/libnacl.a(malloc.o) (munmap)
/Users/ap/SDKs/nacl/pepper_31/toolchain/mac_x86_newlib/bin/../lib/gcc/x86_64-nacl/4.4.3/../../../../x86_64-nacl/lib/../lib32/libnacl.a(tls.o)
                              /Users/ap/SDKs/nacl/pepper_31/toolchain/mac_x86_newlib/bin/../lib/gcc/x86_64-nacl/4.4.3/../../../../x86_64-nacl/lib/../lib32/libpthread.a(nc_thread.o) (__nacl_tls_combined_size)
/Users/ap/SDKs/nacl/pepper_31/toolchain/mac_x86_newlib/bin/../lib/gcc/x86_64-nacl/4.4.3/../../../../x86_64-nacl/lib/../lib32/libnacl.a(write.o)
                              /Users/ap/SDKs/nacl/pepper_31/toolchain/mac_x86_newlib/bin/../lib/gcc/x86_64-nacl/4.4.3/../../../../x86_64-nacl/lib/../lib32/libppapi_stub.a(ppapi_plugin_start.o) (write)
/Users/ap/SDKs/nacl/pepper_31/toolchain/mac_x86_newlib/bin/../lib/gcc/x86_64-nacl/4.4.3/../../../../x86_64-nacl/lib/../lib32/libnacl.a(sysconf.o)
                              /Users/ap/SDKs/nacl/pepper_31/toolchain/mac_x86_newlib/bin/../lib/gcc/x86_64-nacl/4.4.3/../../../../x86_64-nacl/lib/../lib32/libnacl.a(malloc.o) (sysconf)
/Users/ap/SDKs/nacl/pepper_31/toolchain/mac_x86_newlib/bin/../lib/gcc/x86_64-nacl/4.4.3/../../../../x86_64-nacl/lib/../lib32/libnacl.a(nacl_tls_init.o)
                              /Users/ap/SDKs/nacl/pepper_31/toolchain/mac_x86_newlib/bin/../lib/gcc/x86_64-nacl/4.4.3/../../../../x86_64-nacl/lib/../lib32/libnacl.a(pthread_initialize_minimal.o) (nacl_tls_init)
/Users/ap/SDKs/nacl/pepper_31/toolchain/mac_x86_newlib/bin/../lib/gcc/x86_64-nacl/4.4.3/../../../../x86_64-nacl/lib/../lib32/libcrt_common.a(lib_a-abort.o)
                              /Users/ap/SDKs/nacl/pepper_31/toolchain/mac_x86_newlib/bin/../lib/gcc/x86_64-nacl/4.4.3/../../../../x86_64-nacl/lib/../lib32/libnacl.a(malloc.o) (abort)
/Users/ap/SDKs/nacl/pepper_31/toolchain/mac_x86_newlib/bin/../lib/gcc/x86_64-nacl/4.4.3/../../../../x86_64-nacl/lib/../lib32/libcrt_common.a(lib_a-atexit.o)
                              /Users/ap/SDKs/nacl/pepper_31/toolchain/mac_x86_newlib/bin/../lib/gcc/x86_64-nacl/4.4.3/../../../../x86_64-nacl/lib/../lib32/libnacl.a(start.o) (atexit)
/Users/ap/SDKs/nacl/pepper_31/toolchain/mac_x86_newlib/bin/../lib/gcc/x86_64-nacl/4.4.3/../../../../x86_64-nacl/lib/../lib32/libcrt_common.a(lib_a-errno.o)
                              /Users/ap/SDKs/nacl/pepper_31/toolchain/mac_x86_newlib/bin/../lib/gcc/x86_64-nacl/4.4.3/../../../../x86_64-nacl/lib/../lib32/libnacl.a(malloc.o) (__errno)
/Users/ap/SDKs/nacl/pepper_31/toolchain/mac_x86_newlib/bin/../lib/gcc/x86_64-nacl/4.4.3/../../../../x86_64-nacl/lib/../lib32/libcrt_common.a(lib_a-fini.o)
                              /Users/ap/SDKs/nacl/pepper_31/toolchain/mac_x86_newlib/bin/../lib/gcc/x86_64-nacl/4.4.3/../../../../x86_64-nacl/lib/../lib32/libnacl.a(start.o) (__libc_fini_array)
/Users/ap/SDKs/nacl/pepper_31/toolchain/mac_x86_newlib/bin/../lib/gcc/x86_64-nacl/4.4.3/../../../../x86_64-nacl/lib/../lib32/libcrt_common.a(lib_a-fprintf.o)
                              /Users/ap/SDKs/nacl/pepper_31/toolchain/mac_x86_newlib/bin/../lib/gcc/x86_64-nacl/4.4.3/../../../../x86_64-nacl/lib/../lib32/libnacl.a(malloc.o) (fprintf)
/Users/ap/SDKs/nacl/pepper_31/toolchain/mac_x86_newlib/bin/../lib/gcc/x86_64-nacl/4.4.3/../../../../x86_64-nacl/lib/../lib32/libcrt_common.a(lib_a-init.o)
                              /Users/ap/SDKs/nacl/pepper_31/toolchain/mac_x86_newlib/bin/../lib/gcc/x86_64-nacl/4.4.3/../../../../x86_64-nacl/lib/../lib32/libnacl.a(start.o) (__libc_init_array)
/Users/ap/SDKs/nacl/pepper_31/toolchain/mac_x86_newlib/bin/../lib/gcc/x86_64-nacl/4.4.3/../../../../x86_64-nacl/lib/../lib32/libcrt_common.a(lib_a-memcpy.o)
                              /Users/ap/SDKs/nacl/pepper_31/toolchain/mac_x86_newlib/bin/../lib/gcc/x86_64-nacl/4.4.3/../../../../x86_64-nacl/lib/../lib32/libnacl.a(malloc.o) (memcpy)
/Users/ap/SDKs/nacl/pepper_31/toolchain/mac_x86_newlib/bin/../lib/gcc/x86_64-nacl/4.4.3/../../../../x86_64-nacl/lib/../lib32/libcrt_common.a(lib_a-memset.o)
                              /Users/ap/SDKs/nacl/pepper_31/toolchain/mac_x86_newlib/bin/../lib/gcc/x86_64-nacl/4.4.3/../../../../x86_64-nacl/lib/../lib32/libnacl.a(malloc.o) (memset)
/Users/ap/SDKs/nacl/pepper_31/toolchain/mac_x86_newlib/bin/../lib/gcc/x86_64-nacl/4.4.3/../../../../x86_64-nacl/lib/../lib32/libcrt_common.a(lib_a-vfprintf.o)
                              /Users/ap/SDKs/nacl/pepper_31/toolchain/mac_x86_newlib/bin/../lib/gcc/x86_64-nacl/4.4.3/../../../../x86_64-nacl/lib/../lib32/libcrt_common.a(lib_a-fprintf.o) (_vfprintf_r)
/Users/ap/SDKs/nacl/pepper_31/toolchain/mac_x86_newlib/bin/../lib/gcc/x86_64-nacl/4.4.3/../../../../x86_64-nacl/lib/../lib32/libcrt_common.a(lib_a-wcrtomb.o)
                              /Users/ap/SDKs/nacl/pepper_31/toolchain/mac_x86_newlib/bin/../lib/gcc/x86_64-nacl/4.4.3/../../../../x86_64-nacl/lib/../lib32/libcrt_common.a(lib_a-vfprintf.o) (_wcrtomb_r)
/Users/ap/SDKs/nacl/pepper_31/toolchain/mac_x86_newlib/bin/../lib/gcc/x86_64-nacl/4.4.3/../../../../x86_64-nacl/lib/../lib32/libcrt_common.a(lib_a-wcsrtombs.o)
                              /Users/ap/SDKs/nacl/pepper_31/toolchain/mac_x86_newlib/bin/../lib/gcc/x86_64-nacl/4.4.3/../../../../x86_64-nacl/lib/../lib32/libcrt_common.a(lib_a-vfprintf.o) (_wcsrtombs_r)
/Users/ap/SDKs/nacl/pepper_31/toolchain/mac_x86_newlib/bin/../lib/gcc/x86_64-nacl/4.4.3/../../../../x86_64-nacl/lib/../lib32/libcrt_common.a(lib_a-wctomb_r.o)
                              /Users/ap/SDKs/nacl/pepper_31/toolchain/mac_x86_newlib/bin/../lib/gcc/x86_64-nacl/4.4.3/../../../../x86_64-nacl/lib/../lib32/libcrt_common.a(lib_a-wcrtomb.o) (__wctomb)
/Users/ap/SDKs/nacl/pepper_31/toolchain/mac_x86_newlib/bin/../lib/gcc/x86_64-nacl/4.4.3/../../../../x86_64-nacl/lib/../lib32/libcrt_common.a(lib_a-wsetup.o)
                              /Users/ap/SDKs/nacl/pepper_31/toolchain/mac_x86_newlib/bin/../lib/gcc/x86_64-nacl/4.4.3/../../../../x86_64-nacl/lib/../lib32/libcrt_common.a(lib_a-vfprintf.o) (__swsetup_r)
/Users/ap/SDKs/nacl/pepper_31/toolchain/mac_x86_newlib/bin/../lib/gcc/x86_64-nacl/4.4.3/../../../../x86_64-nacl/lib/../lib32/libcrt_common.a(lib_a-dtoa.o)
                              /Users/ap/SDKs/nacl/pepper_31/toolchain/mac_x86_newlib/bin/../lib/gcc/x86_64-nacl/4.4.3/../../../../x86_64-nacl/lib/../lib32/libcrt_common.a(lib_a-vfprintf.o) (_dtoa_r)
/Users/ap/SDKs/nacl/pepper_31/toolchain/mac_x86_newlib/bin/../lib/gcc/x86_64-nacl/4.4.3/../../../../x86_64-nacl/lib/../lib32/libcrt_common.a(lib_a-fflush.o)
                              /Users/ap/SDKs/nacl/pepper_31/toolchain/mac_x86_newlib/bin/../lib/gcc/x86_64-nacl/4.4.3/../../../../x86_64-nacl/lib/../lib32/libcrt_common.a(lib_a-vfprintf.o) (_fflush_r)
/Users/ap/SDKs/nacl/pepper_31/toolchain/mac_x86_newlib/bin/../lib/gcc/x86_64-nacl/4.4.3/../../../../x86_64-nacl/lib/../lib32/libcrt_common.a(lib_a-findfp.o)
                              /Users/ap/SDKs/nacl/pepper_31/toolchain/mac_x86_newlib/bin/../lib/gcc/x86_64-nacl/4.4.3/../../../../x86_64-nacl/lib/../lib32/libcrt_common.a(lib_a-vfprintf.o) (__sinit)
/Users/ap/SDKs/nacl/pepper_31/toolchain/mac_x86_newlib/bin/../lib/gcc/x86_64-nacl/4.4.3/../../../../x86_64-nacl/lib/../lib32/libcrt_common.a(lib_a-fwalk.o)
                              /Users/ap/SDKs/nacl/pepper_31/toolchain/mac_x86_newlib/bin/../lib/gcc/x86_64-nacl/4.4.3/../../../../x86_64-nacl/lib/../lib32/libcrt_common.a(lib_a-fflush.o) (_fwalk_reent)
/Users/ap/SDKs/nacl/pepper_31/toolchain/mac_x86_newlib/bin/../lib/gcc/x86_64-nacl/4.4.3/../../../../x86_64-nacl/lib/../lib32/libcrt_common.a(lib_a-locale.o)
                              /Users/ap/SDKs/nacl/pepper_31/toolchain/mac_x86_newlib/bin/../lib/gcc/x86_64-nacl/4.4.3/../../../../x86_64-nacl/lib/../lib32/libcrt_common.a(lib_a-vfprintf.o) (__locale_charset)
/Users/ap/SDKs/nacl/pepper_31/toolchain/mac_x86_newlib/bin/../lib/gcc/x86_64-nacl/4.4.3/../../../../x86_64-nacl/lib/../lib32/libcrt_common.a(lib_a-makebuf.o)
                              /Users/ap/SDKs/nacl/pepper_31/toolchain/mac_x86_newlib/bin/../lib/gcc/x86_64-nacl/4.4.3/../../../../x86_64-nacl/lib/../lib32/libcrt_common.a(lib_a-wsetup.o) (__smakebuf_r)
/Users/ap/SDKs/nacl/pepper_31/toolchain/mac_x86_newlib/bin/../lib/gcc/x86_64-nacl/4.4.3/../../../../x86_64-nacl/lib/../lib32/libcrt_common.a(lib_a-mbtowc_r.o)
                              /Users/ap/SDKs/nacl/pepper_31/toolchain/mac_x86_newlib/bin/../lib/gcc/x86_64-nacl/4.4.3/../../../../x86_64-nacl/lib/../lib32/libcrt_common.a(lib_a-locale.o) (__ascii_mbtowc)
/Users/ap/SDKs/nacl/pepper_31/toolchain/mac_x86_newlib/bin/../lib/gcc/x86_64-nacl/4.4.3/../../../../x86_64-nacl/lib/../lib32/libcrt_common.a(lib_a-memchr.o)
                              /Users/ap/SDKs/nacl/pepper_31/toolchain/mac_x86_newlib/bin/../lib/gcc/x86_64-nacl/4.4.3/../../../../x86_64-nacl/lib/../lib32/libcrt_common.a(lib_a-vfprintf.o) (memchr)
/Users/ap/SDKs/nacl/pepper_31/toolchain/mac_x86_newlib/bin/../lib/gcc/x86_64-nacl/4.4.3/../../../../x86_64-nacl/lib/../lib32/libcrt_common.a(lib_a-mprec.o)
                              /Users/ap/SDKs/nacl/pepper_31/toolchain/mac_x86_newlib/bin/../lib/gcc/x86_64-nacl/4.4.3/../../../../x86_64-nacl/lib/../lib32/libcrt_common.a(lib_a-dtoa.o) (_Bfree)
/Users/ap/SDKs/nacl/pepper_31/toolchain/mac_x86_newlib/bin/../lib/gcc/x86_64-nacl/4.4.3/../../../../x86_64-nacl/lib/../lib32/libcrt_common.a(lib_a-s_fpclassify.o)
                              /Users/ap/SDKs/nacl/pepper_31/toolchain/mac_x86_newlib/bin/../lib/gcc/x86_64-nacl/4.4.3/../../../../x86_64-nacl/lib/../lib32/libcrt_common.a(lib_a-vfprintf.o) (__fpclassifyd)
/Users/ap/SDKs/nacl/pepper_31/toolchain/mac_x86_newlib/bin/../lib/gcc/x86_64-nacl/4.4.3/../../../../x86_64-nacl/lib/../lib32/libcrt_common.a(lib_a-s_frexp.o)
                              /Users/ap/SDKs/nacl/pepper_31/toolchain/mac_x86_newlib/bin/../lib/gcc/x86_64-nacl/4.4.3/../../../../x86_64-nacl/lib/../lib32/libcrt_common.a(lib_a-vfprintf.o) (frexp)
/Users/ap/SDKs/nacl/pepper_31/toolchain/mac_x86_newlib/bin/../lib/gcc/x86_64-nacl/4.4.3/../../../../x86_64-nacl/lib/../lib32/libcrt_common.a(lib_a-stdio.o)
                              /Users/ap/SDKs/nacl/pepper_31/toolchain/mac_x86_newlib/bin/../lib/gcc/x86_64-nacl/4.4.3/../../../../x86_64-nacl/lib/../lib32/libcrt_common.a(lib_a-findfp.o) (__sclose)
/Users/ap/SDKs/nacl/pepper_31/toolchain/mac_x86_newlib/bin/../lib/gcc/x86_64-nacl/4.4.3/../../../../x86_64-nacl/lib/../lib32/libcrt_common.a(lib_a-strcasecmp.o)
                              /Users/ap/SDKs/nacl/pepper_31/toolchain/mac_x86_newlib/bin/../lib/gcc/x86_64-nacl/4.4.3/../../../../x86_64-nacl/lib/../lib32/libcrt_common.a(lib_a-locale.o) (strcasecmp)
/Users/ap/SDKs/nacl/pepper_31/toolchain/mac_x86_newlib/bin/../lib/gcc/x86_64-nacl/4.4.3/../../../../x86_64-nacl/lib/../lib32/libcrt_common.a(lib_a-strcat.o)
                              /Users/ap/SDKs/nacl/pepper_31/toolchain/mac_x86_newlib/bin/../lib/gcc/x86_64-nacl/4.4.3/../../../../x86_64-nacl/lib/../lib32/libcrt_common.a(lib_a-locale.o) (strcat)
/Users/ap/SDKs/nacl/pepper_31/toolchain/mac_x86_newlib/bin/../lib/gcc/x86_64-nacl/4.4.3/../../../../x86_64-nacl/lib/../lib32/libcrt_common.a(lib_a-strchr.o)
                              /Users/ap/SDKs/nacl/pepper_31/toolchain/mac_x86_newlib/bin/../lib/gcc/x86_64-nacl/4.4.3/../../../../x86_64-nacl/lib/../lib32/libcrt_common.a(lib_a-locale.o) (strchr)
/Users/ap/SDKs/nacl/pepper_31/toolchain/mac_x86_newlib/bin/../lib/gcc/x86_64-nacl/4.4.3/../../../../x86_64-nacl/lib/../lib32/libcrt_common.a(lib_a-strcmp.o)
                              /Users/ap/SDKs/nacl/pepper_31/toolchain/mac_x86_newlib/bin/../lib/gcc/x86_64-nacl/4.4.3/../../../../x86_64-nacl/lib/../lib32/libcrt_common.a(lib_a-locale.o) (strcmp)
/Users/ap/SDKs/nacl/pepper_31/toolchain/mac_x86_newlib/bin/../lib/gcc/x86_64-nacl/4.4.3/../../../../x86_64-nacl/lib/../lib32/libcrt_common.a(lib_a-strcpy.o)
                              /Users/ap/SDKs/nacl/pepper_31/toolchain/mac_x86_newlib/bin/../lib/gcc/x86_64-nacl/4.4.3/../../../../x86_64-nacl/lib/../lib32/libcrt_common.a(lib_a-locale.o) (strcpy)
/Users/ap/SDKs/nacl/pepper_31/toolchain/mac_x86_newlib/bin/../lib/gcc/x86_64-nacl/4.4.3/../../../../x86_64-nacl/lib/../lib32/libcrt_common.a(lib_a-strlcpy.o)
                              /Users/ap/SDKs/nacl/pepper_31/toolchain/mac_x86_newlib/bin/../lib/gcc/x86_64-nacl/4.4.3/../../../../x86_64-nacl/lib/../lib32/libcrt_common.a(lib_a-locale.o) (strlcpy)
/Users/ap/SDKs/nacl/pepper_31/toolchain/mac_x86_newlib/bin/../lib/gcc/x86_64-nacl/4.4.3/../../../../x86_64-nacl/lib/../lib32/libcrt_common.a(lib_a-strncasecmp.o)
                              /Users/ap/SDKs/nacl/pepper_31/toolchain/mac_x86_newlib/bin/../lib/gcc/x86_64-nacl/4.4.3/../../../../x86_64-nacl/lib/../lib32/libcrt_common.a(lib_a-locale.o) (strncasecmp)
/Users/ap/SDKs/nacl/pepper_31/toolchain/mac_x86_newlib/bin/../lib/gcc/x86_64-nacl/4.4.3/../../../../x86_64-nacl/lib/../lib32/libcrt_common.a(lib_a-strncpy.o)
                              /Users/ap/SDKs/nacl/pepper_31/toolchain/mac_x86_newlib/bin/../lib/gcc/x86_64-nacl/4.4.3/../../../../x86_64-nacl/lib/../lib32/libcrt_common.a(lib_a-vfprintf.o) (strncpy)
/Users/ap/SDKs/nacl/pepper_31/toolchain/mac_x86_newlib/bin/../lib/gcc/x86_64-nacl/4.4.3/../../../../x86_64-nacl/lib/../lib32/libcrt_common.a(lib_a-strtol.o)
                              /Users/ap/SDKs/nacl/pepper_31/toolchain/mac_x86_newlib/bin/../lib/gcc/x86_64-nacl/4.4.3/../../../../x86_64-nacl/lib/../lib32/libcrt_common.a(lib_a-locale.o) (_strtol_r)
/Users/ap/SDKs/nacl/pepper_31/toolchain/mac_x86_newlib/bin/../lib/gcc/x86_64-nacl/4.4.3/../../../../x86_64-nacl/lib/../lib32/libcrt_common.a(lib_a-vfiprintf.o)
                              /Users/ap/SDKs/nacl/pepper_31/toolchain/mac_x86_newlib/bin/../lib/gcc/x86_64-nacl/4.4.3/../../../../x86_64-nacl/lib/../lib32/libcrt_common.a(lib_a-vfprintf.o) (__sprint_r)
/Users/ap/SDKs/nacl/pepper_31/toolchain/mac_x86_newlib/bin/../lib/gcc/x86_64-nacl/4.4.3/../../../../x86_64-nacl/lib/../lib32/libcrt_common.a(lib_a-wcsnrtombs.o)
                              /Users/ap/SDKs/nacl/pepper_31/toolchain/mac_x86_newlib/bin/../lib/gcc/x86_64-nacl/4.4.3/../../../../x86_64-nacl/lib/../lib32/libcrt_common.a(lib_a-wcsrtombs.o) (_wcsnrtombs_r)
/Users/ap/SDKs/nacl/pepper_31/toolchain/mac_x86_newlib/bin/../lib/gcc/x86_64-nacl/4.4.3/../../../../x86_64-nacl/lib/../lib32/libcrt_common.a(lib_a-writer.o)
                              /Users/ap/SDKs/nacl/pepper_31/toolchain/mac_x86_newlib/bin/../lib/gcc/x86_64-nacl/4.4.3/../../../../x86_64-nacl/lib/../lib32/libcrt_common.a(lib_a-stdio.o) (_write_r)
/Users/ap/SDKs/nacl/pepper_31/toolchain/mac_x86_newlib/bin/../lib/gcc/x86_64-nacl/4.4.3/../../../../x86_64-nacl/lib/../lib32/libcrt_common.a(lib_a-closer.o)
                              /Users/ap/SDKs/nacl/pepper_31/toolchain/mac_x86_newlib/bin/../lib/gcc/x86_64-nacl/4.4.3/../../../../x86_64-nacl/lib/../lib32/libcrt_common.a(lib_a-stdio.o) (_close_r)
/Users/ap/SDKs/nacl/pepper_31/toolchain/mac_x86_newlib/bin/../lib/gcc/x86_64-nacl/4.4.3/../../../../x86_64-nacl/lib/../lib32/libcrt_common.a(lib_a-ctype_.o)
                              /Users/ap/SDKs/nacl/pepper_31/toolchain/mac_x86_newlib/bin/../lib/gcc/x86_64-nacl/4.4.3/../../../../x86_64-nacl/lib/../lib32/libcrt_common.a(lib_a-locale.o) (__set_ctype)
/Users/ap/SDKs/nacl/pepper_31/toolchain/mac_x86_newlib/bin/../lib/gcc/x86_64-nacl/4.4.3/../../../../x86_64-nacl/lib/../lib32/libcrt_common.a(lib_a-fclose.o)
                              /Users/ap/SDKs/nacl/pepper_31/toolchain/mac_x86_newlib/bin/../lib/gcc/x86_64-nacl/4.4.3/../../../../x86_64-nacl/lib/../lib32/libcrt_common.a(lib_a-findfp.o) (fclose)
/Users/ap/SDKs/nacl/pepper_31/toolchain/mac_x86_newlib/bin/../lib/gcc/x86_64-nacl/4.4.3/../../../../x86_64-nacl/lib/../lib32/libcrt_common.a(lib_a-fputwc.o)
                              /Users/ap/SDKs/nacl/pepper_31/toolchain/mac_x86_newlib/bin/../lib/gcc/x86_64-nacl/4.4.3/../../../../x86_64-nacl/lib/../lib32/libcrt_common.a(lib_a-vfiprintf.o) (_fputwc_r)
/Users/ap/SDKs/nacl/pepper_31/toolchain/mac_x86_newlib/bin/../lib/gcc/x86_64-nacl/4.4.3/../../../../x86_64-nacl/lib/../lib32/libcrt_common.a(lib_a-fstatr.o)
                              /Users/ap/SDKs/nacl/pepper_31/toolchain/mac_x86_newlib/bin/../lib/gcc/x86_64-nacl/4.4.3/../../../../x86_64-nacl/lib/../lib32/libcrt_common.a(lib_a-makebuf.o) (_fstat_r)
/Users/ap/SDKs/nacl/pepper_31/toolchain/mac_x86_newlib/bin/../lib/gcc/x86_64-nacl/4.4.3/../../../../x86_64-nacl/lib/../lib32/libcrt_common.a(lib_a-fvwrite.o)
                              /Users/ap/SDKs/nacl/pepper_31/toolchain/mac_x86_newlib/bin/../lib/gcc/x86_64-nacl/4.4.3/../../../../x86_64-nacl/lib/../lib32/libcrt_common.a(lib_a-vfiprintf.o) (__sfvwrite_r)
/Users/ap/SDKs/nacl/pepper_31/toolchain/mac_x86_newlib/bin/../lib/gcc/x86_64-nacl/4.4.3/../../../../x86_64-nacl/lib/../lib32/libcrt_common.a(lib_a-isattyr.o)
                              /Users/ap/SDKs/nacl/pepper_31/toolchain/mac_x86_newlib/bin/../lib/gcc/x86_64-nacl/4.4.3/../../../../x86_64-nacl/lib/../lib32/libcrt_common.a(lib_a-makebuf.o) (_isatty_r)
/Users/ap/SDKs/nacl/pepper_31/toolchain/mac_x86_newlib/bin/../lib/gcc/x86_64-nacl/4.4.3/../../../../x86_64-nacl/lib/../lib32/libcrt_common.a(lib_a-lseekr.o)
                              /Users/ap/SDKs/nacl/pepper_31/toolchain/mac_x86_newlib/bin/../lib/gcc/x86_64-nacl/4.4.3/../../../../x86_64-nacl/lib/../lib32/libcrt_common.a(lib_a-stdio.o) (_lseek_r)
/Users/ap/SDKs/nacl/pepper_31/toolchain/mac_x86_newlib/bin/../lib/gcc/x86_64-nacl/4.4.3/../../../../x86_64-nacl/lib/../lib32/libcrt_common.a(lib_a-memmove.o)
                              /Users/ap/SDKs/nacl/pepper_31/toolchain/mac_x86_newlib/bin/../lib/gcc/x86_64-nacl/4.4.3/../../../../x86_64-nacl/lib/../lib32/libcrt_common.a(lib_a-fvwrite.o) (memmove)
/Users/ap/SDKs/nacl/pepper_31/toolchain/mac_x86_newlib/bin/../lib/gcc/x86_64-nacl/4.4.3/../../../../x86_64-nacl/lib/../lib32/libcrt_common.a(lib_a-readr.o)
                              /Users/ap/SDKs/nacl/pepper_31/toolchain/mac_x86_newlib/bin/../lib/gcc/x86_64-nacl/4.4.3/../../../../x86_64-nacl/lib/../lib32/libcrt_common.a(lib_a-stdio.o) (_read_r)
/Users/ap/SDKs/nacl/pepper_31/toolchain/mac_x86_newlib/bin/../lib/gcc/x86_64-nacl/4.4.3/../../../../x86_64-nacl/lib/../lib32/libcrt_common.a(lib_a-reent.o)
                              /Users/ap/SDKs/nacl/pepper_31/toolchain/mac_x86_newlib/bin/../lib/gcc/x86_64-nacl/4.4.3/../../../../x86_64-nacl/lib/../lib32/libcrt_common.a(lib_a-writer.o) (errno)
/Users/ap/SDKs/nacl/pepper_31/toolchain/mac_x86_newlib/bin/../lib/gcc/x86_64-nacl/4.4.3/../../../../x86_64-nacl/lib/../lib32/libcrt_common.a(lib_a-wbuf.o)
                              /Users/ap/SDKs/nacl/pepper_31/toolchain/mac_x86_newlib/bin/../lib/gcc/x86_64-nacl/4.4.3/../../../../x86_64-nacl/lib/../lib32/libcrt_common.a(lib_a-fputwc.o) (__swbuf_r)
/Users/ap/SDKs/nacl/pepper_31/toolchain/mac_x86_newlib/bin/../lib/gcc/x86_64-nacl/4.4.3/../../../../x86_64-nacl/lib/../lib32/libcrt_common.a(lib_a-isatty.o)
                              /Users/ap/SDKs/nacl/pepper_31/toolchain/mac_x86_newlib/bin/../lib/gcc/x86_64-nacl/4.4.3/../../../../x86_64-nacl/lib/../lib32/libcrt_common.a(lib_a-isattyr.o) (isatty)
/Users/ap/SDKs/nacl/pepper_31/toolchain/mac_x86_newlib/bin/../lib/gcc/x86_64-nacl/4.4.3/../../../../x86_64-nacl/lib/../lib32/libcrt_common.a(lib_a-_isatty.o)
                              /Users/ap/SDKs/nacl/pepper_31/toolchain/mac_x86_newlib/bin/../lib/gcc/x86_64-nacl/4.4.3/../../../../x86_64-nacl/lib/../lib32/libcrt_common.a(lib_a-isatty.o) (_isatty)
/Users/ap/SDKs/nacl/pepper_31/toolchain/mac_x86_newlib/bin/../lib/gcc/x86_64-nacl/4.4.3/../../../../x86_64-nacl/lib/../lib32/libnacl.a(close.o)
                              /Users/ap/SDKs/nacl/pepper_31/toolchain/mac_x86_newlib/bin/../lib/gcc/x86_64-nacl/4.4.3/../../../../x86_64-nacl/lib/../lib32/libcrt_common.a(lib_a-closer.o) (close)
/Users/ap/SDKs/nacl/pepper_31/toolchain/mac_x86_newlib/bin/../lib/gcc/x86_64-nacl/4.4.3/../../../../x86_64-nacl/lib/../lib32/libnacl.a(fstat.o)
                              /Users/ap/SDKs/nacl/pepper_31/toolchain/mac_x86_newlib/bin/../lib/gcc/x86_64-nacl/4.4.3/../../../../x86_64-nacl/lib/../lib32/libcrt_common.a(lib_a-fstatr.o) (fstat)
/Users/ap/SDKs/nacl/pepper_31/toolchain/mac_x86_newlib/bin/../lib/gcc/x86_64-nacl/4.4.3/../../../../x86_64-nacl/lib/../lib32/libnacl.a(lseek.o)
                              /Users/ap/SDKs/nacl/pepper_31/toolchain/mac_x86_newlib/bin/../lib/gcc/x86_64-nacl/4.4.3/../../../../x86_64-nacl/lib/../lib32/libcrt_common.a(lib_a-lseekr.o) (lseek)
/Users/ap/SDKs/nacl/pepper_31/toolchain/mac_x86_newlib/bin/../lib/gcc/x86_64-nacl/4.4.3/../../../../x86_64-nacl/lib/../lib32/libnacl.a(read.o)
                              /Users/ap/SDKs/nacl/pepper_31/toolchain/mac_x86_newlib/bin/../lib/gcc/x86_64-nacl/4.4.3/../../../../x86_64-nacl/lib/../lib32/libcrt_common.a(lib_a-readr.o) (read)
/Users/ap/SDKs/nacl/pepper_31/toolchain/mac_x86_newlib/bin/../lib/gcc/x86_64-nacl/4.4.3/32/libgcc.a(_udivdi3.o)
                              /Users/ap/SDKs/nacl/pepper_31/toolchain/mac_x86_newlib/bin/../lib/gcc/x86_64-nacl/4.4.3/../../../../x86_64-nacl/lib/../lib32/libcrt_common.a(lib_a-vfprintf.o) (__udivdi3)
/Users/ap/SDKs/nacl/pepper_31/toolchain/mac_x86_newlib/bin/../lib/gcc/x86_64-nacl/4.4.3/32/libgcc.a(_umoddi3.o)
                              /Users/ap/SDKs/nacl/pepper_31/toolchain/mac_x86_newlib/bin/../lib/gcc/x86_64-nacl/4.4.3/../../../../x86_64-nacl/lib/../lib32/libcrt_common.a(lib_a-vfprintf.o) (__umoddi3)

Allocating common symbols
Common symbol       size              file

__nacl_irt_query    0x4               /Users/ap/SDKs/nacl/pepper_31/toolchain/mac_x86_newlib/bin/../lib/gcc/x86_64-nacl/4.4.3/../../../../x86_64-nacl/lib/../lib32/libnacl.a(nacl_irt.o)
__libnacl_irt_dev_filename
                    0x1c              /Users/ap/SDKs/nacl/pepper_31/toolchain/mac_x86_newlib/bin/../lib/gcc/x86_64-nacl/4.4.3/../../../../x86_64-nacl/lib/../lib32/libnacl.a(nacl_irt.o)
__nc_thread_initialized
                    0x4               /Users/ap/SDKs/nacl/pepper_31/toolchain/mac_x86_newlib/bin/../lib/gcc/x86_64-nacl/4.4.3/../../../../x86_64-nacl/lib/../lib32/libpthread.a(nc_thread.o)
errno               0x4               /Users/ap/SDKs/nacl/pepper_31/toolchain/mac_x86_newlib/bin/../lib/gcc/x86_64-nacl/4.4.3/../../../../x86_64-nacl/lib/../lib32/libcrt_common.a(lib_a-reent.o)
__libnacl_irt_clock
                    0x8               /Users/ap/SDKs/nacl/pepper_31/toolchain/mac_x86_newlib/bin/../lib/gcc/x86_64-nacl/4.4.3/../../../../x86_64-nacl/lib/../lib32/libnacl.a(nacl_irt.o)
__nc_thread_management_lock
                    0x14              /Users/ap/SDKs/nacl/pepper_31/toolchain/mac_x86_newlib/bin/../lib/gcc/x86_64-nacl/4.4.3/../../../../x86_64-nacl/lib/../lib32/libpthread.a(nc_thread.o)
__nc_memory_block_counter
                    0x8               /Users/ap/SDKs/nacl/pepper_31/toolchain/mac_x86_newlib/bin/../lib/gcc/x86_64-nacl/4.4.3/../../../../x86_64-nacl/lib/../lib32/libpthread.a(nc_thread.o)
__nacl_initial_thread_stack_end
                    0x4               /Users/ap/SDKs/nacl/pepper_31/toolchain/mac_x86_newlib/bin/../lib/gcc/x86_64-nacl/4.4.3/../../../../x86_64-nacl/lib/../lib32/libnacl.a(start.o)
__libnacl_irt_memory
                    0xc               /Users/ap/SDKs/nacl/pepper_31/toolchain/mac_x86_newlib/bin/../lib/gcc/x86_64-nacl/4.4.3/../../../../x86_64-nacl/lib/../lib32/libnacl.a(nacl_irt.o)
__nc_initial_thread_id
                    0x4               /Users/ap/SDKs/nacl/pepper_31/toolchain/mac_x86_newlib/bin/../lib/gcc/x86_64-nacl/4.4.3/../../../../x86_64-nacl/lib/../lib32/libpthread.a(nc_thread.o)
__nc_irt_futex      0x8               /Users/ap/SDKs/nacl/pepper_31/toolchain/mac_x86_newlib/bin/../lib/gcc/x86_64-nacl/4.4.3/../../../../x86_64-nacl/lib/../lib32/libpthread.a(nc_init_irt.o)
__libnacl_irt_basic
                    0x18              /Users/ap/SDKs/nacl/pepper_31/toolchain/mac_x86_newlib/bin/../lib/gcc/x86_64-nacl/4.4.3/../../../../x86_64-nacl/lib/../lib32/libnacl.a(nacl_irt.o)
__nc_thread_memory_blocks
                    0x10              /Users/ap/SDKs/nacl/pepper_31/toolchain/mac_x86_newlib/bin/../lib/gcc/x86_64-nacl/4.4.3/../../../../x86_64-nacl/lib/../lib32/libpthread.a(nc_thread.o)
__libnacl_irt_tls   0x8               /Users/ap/SDKs/nacl/pepper_31/toolchain/mac_x86_newlib/bin/../lib/gcc/x86_64-nacl/4.4.3/../../../../x86_64-nacl/lib/../lib32/libnacl.a(nacl_irt.o)
__libnacl_irt_dev_getpid
                    0x4               /Users/ap/SDKs/nacl/pepper_31/toolchain/mac_x86_newlib/bin/../lib/gcc/x86_64-nacl/4.4.3/../../../../x86_64-nacl/lib/../lib32/libnacl.a(nacl_irt.o)

Discarded input sections

 .note.GNU-stack
                0x0000000000000000        0x0 /Users/ap/SDKs/nacl/pepper_31/toolchain/mac_x86_newlib/bin/../lib/gcc/x86_64-nacl/4.4.3/32/crtbegin.o
 .note.GNU-stack
                0x0000000000000000        0x0 /Users/ap/SDKs/nacl/pepper_31/toolchain/mac_x86_newlib/bin/../lib/gcc/x86_64-nacl/4.4.3/../../../../x86_64-nacl/lib/../lib32/libppapi_stub.a(plugin_main_irt.o)
 .note.GNU-stack
                0x0000000000000000        0x0 /Users/ap/SDKs/nacl/pepper_31/toolchain/mac_x86_newlib/bin/../lib/gcc/x86_64-nacl/4.4.3/../../../../x86_64-nacl/lib/../lib32/libppapi_stub.a(ppapi_plugin_main.o)
 .note.GNU-stack
                0x0000000000000000        0x0 /Users/ap/SDKs/nacl/pepper_31/toolchain/mac_x86_newlib/bin/../lib/gcc/x86_64-nacl/4.4.3/../../../../x86_64-nacl/lib/../lib32/libppapi_stub.a(ppapi_plugin_start.o)
 .note.GNU-stack
                0x0000000000000000        0x0 /Users/ap/SDKs/nacl/pepper_31/toolchain/mac_x86_newlib/bin/../lib/gcc/x86_64-nacl/4.4.3/../../../../x86_64-nacl/lib/../lib32/libppapi_stub.a(thread_creator.o)
 .note.GNU-stack
                0x0000000000000000        0x0 /Users/ap/SDKs/nacl/pepper_31/toolchain/mac_x86_newlib/bin/../lib/gcc/x86_64-nacl/4.4.3/../../../../x86_64-nacl/lib/../lib32/libpthread.a(nc_thread.o)
 .note.GNU-stack
                0x0000000000000000        0x0 /Users/ap/SDKs/nacl/pepper_31/toolchain/mac_x86_newlib/bin/../lib/gcc/x86_64-nacl/4.4.3/../../../../x86_64-nacl/lib/../lib32/libpthread.a(nc_condvar.o)
 .note.GNU-stack
                0x0000000000000000        0x0 /Users/ap/SDKs/nacl/pepper_31/toolchain/mac_x86_newlib/bin/../lib/gcc/x86_64-nacl/4.4.3/../../../../x86_64-nacl/lib/../lib32/libpthread.a(dynamic_annotations.o)
 .note.GNU-stack
                0x0000000000000000        0x0 /Users/ap/SDKs/nacl/pepper_31/toolchain/mac_x86_newlib/bin/../lib/gcc/x86_64-nacl/4.4.3/../../../../x86_64-nacl/lib/../lib32/libpthread.a(nc_mutex.o)
 .note.GNU-stack
                0x0000000000000000        0x0 /Users/ap/SDKs/nacl/pepper_31/toolchain/mac_x86_newlib/bin/../lib/gcc/x86_64-nacl/4.4.3/../../../../x86_64-nacl/lib/../lib32/libpthread.a(nc_init_irt.o)
 .note.GNU-stack
                0x0000000000000000        0x0 /Users/ap/SDKs/nacl/pepper_31/toolchain/mac_x86_newlib/bin/../lib/gcc/x86_64-nacl/4.4.3/../../../../x86_64-nacl/lib/../lib32/libcrt_common.a(lib_a-environ.o)
 .note.GNU-stack
                0x0000000000000000        0x0 /Users/ap/SDKs/nacl/pepper_31/toolchain/mac_x86_newlib/bin/../lib/gcc/x86_64-nacl/4.4.3/../../../../x86_64-nacl/lib/../lib32/libcrt_common.a(lib_a-exit.o)
 .note.GNU-stack
                0x0000000000000000        0x0 /Users/ap/SDKs/nacl/pepper_31/toolchain/mac_x86_newlib/bin/../lib/gcc/x86_64-nacl/4.4.3/../../../../x86_64-nacl/lib/../lib32/libcrt_common.a(lib_a-getenv.o)
 .note.GNU-stack
                0x0000000000000000        0x0 /Users/ap/SDKs/nacl/pepper_31/toolchain/mac_x86_newlib/bin/../lib/gcc/x86_64-nacl/4.4.3/../../../../x86_64-nacl/lib/../lib32/libcrt_common.a(lib_a-getenv_r.o)
 .note.GNU-stack
                0x0000000000000000        0x0 /Users/ap/SDKs/nacl/pepper_31/toolchain/mac_x86_newlib/bin/../lib/gcc/x86_64-nacl/4.4.3/../../../../x86_64-nacl/lib/../lib32/libcrt_common.a(lib_a-impure.o)
 .note.GNU-stack
                0x0000000000000000        0x0 /Users/ap/SDKs/nacl/pepper_31/toolchain/mac_x86_newlib/bin/../lib/gcc/x86_64-nacl/4.4.3/../../../../x86_64-nacl/lib/../lib32/libcrt_common.a(lib_a-strncmp.o)
 .note.GNU-stack
                0x0000000000000000        0x0 /Users/ap/SDKs/nacl/pepper_31/toolchain/mac_x86_newlib/bin/../lib/gcc/x86_64-nacl/4.4.3/../../../../x86_64-nacl/lib/../lib32/libcrt_common.a(lib_a-__call_atexit.o)
 .note.GNU-stack
                0x0000000000000000        0x0 /Users/ap/SDKs/nacl/pepper_31/toolchain/mac_x86_newlib/bin/../lib/gcc/x86_64-nacl/4.4.3/../../../../x86_64-nacl/lib/../lib32/libcrt_common.a(lib_a-envlock.o)
 .note.GNU-stack
                0x0000000000000000        0x0 /Users/ap/SDKs/nacl/pepper_31/toolchain/mac_x86_newlib/bin/../lib/gcc/x86_64-nacl/4.4.3/../../../../x86_64-nacl/lib/../lib32/libcrt_common.a(lib_a-__atexit.o)
 .note.GNU-stack
                0x0000000000000000        0x0 /Users/ap/SDKs/nacl/pepper_31/toolchain/mac_x86_newlib/bin/../lib/gcc/x86_64-nacl/4.4.3/../../../../x86_64-nacl/lib/../lib32/libnacl.a(_exit.o)
 .note.GNU-stack
                0x0000000000000000        0x0 /Users/ap/SDKs/nacl/pepper_31/toolchain/mac_x86_newlib/bin/../lib/gcc/x86_64-nacl/4.4.3/../../../../x86_64-nacl/lib/../lib32/libnacl.a(start.o)
 .note.GNU-stack
                0x0000000000000000        0x0 /Users/ap/SDKs/nacl/pepper_31/toolchain/mac_x86_newlib/bin/../lib/gcc/x86_64-nacl/4.4.3/../../../../x86_64-nacl/lib/../lib32/libnacl.a(malloc.o)
 .note.GNU-stack
                0x0000000000000000        0x0 /Users/ap/SDKs/nacl/pepper_31/toolchain/mac_x86_newlib/bin/../lib/gcc/x86_64-nacl/4.4.3/../../../../x86_64-nacl/lib/../lib32/libnacl.a(nacl_irt.o)
 .note.GNU-stack
                0x0000000000000000        0x0 /Users/ap/SDKs/nacl/pepper_31/toolchain/mac_x86_newlib/bin/../lib/gcc/x86_64-nacl/4.4.3/../../../../x86_64-nacl/lib/../lib32/libnacl.a(pthread_initialize_minimal.o)
 .note.GNU-stack
                0x0000000000000000        0x0 /Users/ap/SDKs/nacl/pepper_31/toolchain/mac_x86_newlib/bin/../lib/gcc/x86_64-nacl/4.4.3/../../../../x86_64-nacl/lib/../lib32/libnacl.a(nacl_read_tp.o)
 .note.GNU-stack
                0x0000000000000000        0x0 /Users/ap/SDKs/nacl/pepper_31/toolchain/mac_x86_newlib/bin/../lib/gcc/x86_64-nacl/4.4.3/../../../../x86_64-nacl/lib/../lib32/libnacl.a(mmap.o)
 .note.GNU-stack
                0x0000000000000000        0x0 /Users/ap/SDKs/nacl/pepper_31/toolchain/mac_x86_newlib/bin/../lib/gcc/x86_64-nacl/4.4.3/../../../../x86_64-nacl/lib/../lib32/libnacl.a(sched_yield.o)
 .note.GNU-stack
                0x0000000000000000        0x0 /Users/ap/SDKs/nacl/pepper_31/toolchain/mac_x86_newlib/bin/../lib/gcc/x86_64-nacl/4.4.3/../../../../x86_64-nacl/lib/../lib32/libnacl.a(munmap.o)
 .note.GNU-stack
                0x0000000000000000        0x0 /Users/ap/SDKs/nacl/pepper_31/toolchain/mac_x86_newlib/bin/../lib/gcc/x86_64-nacl/4.4.3/../../../../x86_64-nacl/lib/../lib32/libnacl.a(tls.o)
 .note.GNU-stack
                0x0000000000000000        0x0 /Users/ap/SDKs/nacl/pepper_31/toolchain/mac_x86_newlib/bin/../lib/gcc/x86_64-nacl/4.4.3/../../../../x86_64-nacl/lib/../lib32/libnacl.a(write.o)
 .note.GNU-stack
                0x0000000000000000        0x0 /Users/ap/SDKs/nacl/pepper_31/toolchain/mac_x86_newlib/bin/../lib/gcc/x86_64-nacl/4.4.3/../../../../x86_64-nacl/lib/../lib32/libnacl.a(sysconf.o)
 .note.GNU-stack
                0x0000000000000000        0x0 /Users/ap/SDKs/nacl/pepper_31/toolchain/mac_x86_newlib/bin/../lib/gcc/x86_64-nacl/4.4.3/../../../../x86_64-nacl/lib/../lib32/libnacl.a(nacl_tls_init.o)
 .note.GNU-stack
                0x0000000000000000        0x0 /Users/ap/SDKs/nacl/pepper_31/toolchain/mac_x86_newlib/bin/../lib/gcc/x86_64-nacl/4.4.3/../../../../x86_64-nacl/lib/../lib32/libcrt_common.a(lib_a-abort.o)
 .note.GNU-stack
                0x0000000000000000        0x0 /Users/ap/SDKs/nacl/pepper_31/toolchain/mac_x86_newlib/bin/../lib/gcc/x86_64-nacl/4.4.3/../../../../x86_64-nacl/lib/../lib32/libcrt_common.a(lib_a-atexit.o)
 .note.GNU-stack
                0x0000000000000000        0x0 /Users/ap/SDKs/nacl/pepper_31/toolchain/mac_x86_newlib/bin/../lib/gcc/x86_64-nacl/4.4.3/../../../../x86_64-nacl/lib/../lib32/libcrt_common.a(lib_a-errno.o)
 .note.GNU-stack
                0x0000000000000000        0x0 /Users/ap/SDKs/nacl/pepper_31/toolchain/mac_x86_newlib/bin/../lib/gcc/x86_64-nacl/4.4.3/../../../../x86_64-nacl/lib/../lib32/libcrt_common.a(lib_a-fini.o)
 .note.GNU-stack
                0x0000000000000000        0x0 /Users/ap/SDKs/nacl/pepper_31/toolchain/mac_x86_newlib/bin/../lib/gcc/x86_64-nacl/4.4.3/../../../../x86_64-nacl/lib/../lib32/libcrt_common.a(lib_a-fprintf.o)
 .note.GNU-stack
                0x0000000000000000        0x0 /Users/ap/SDKs/nacl/pepper_31/toolchain/mac_x86_newlib/bin/../lib/gcc/x86_64-nacl/4.4.3/../../../../x86_64-nacl/lib/../lib32/libcrt_common.a(lib_a-init.o)
 .note.GNU-stack
                0x0000000000000000        0x0 /Users/ap/SDKs/nacl/pepper_31/toolchain/mac_x86_newlib/bin/../lib/gcc/x86_64-nacl/4.4.3/../../../../x86_64-nacl/lib/../lib32/libcrt_common.a(lib_a-vfprintf.o)
 .note.GNU-stack
                0x0000000000000000        0x0 /Users/ap/SDKs/nacl/pepper_31/toolchain/mac_x86_newlib/bin/../lib/gcc/x86_64-nacl/4.4.3/../../../../x86_64-nacl/lib/../lib32/libcrt_common.a(lib_a-wcrtomb.o)
 .note.GNU-stack
                0x0000000000000000        0x0 /Users/ap/SDKs/nacl/pepper_31/toolchain/mac_x86_newlib/bin/../lib/gcc/x86_64-nacl/4.4.3/../../../../x86_64-nacl/lib/../lib32/libcrt_common.a(lib_a-wcsrtombs.o)
 .note.GNU-stack
                0x0000000000000000        0x0 /Users/ap/SDKs/nacl/pepper_31/toolchain/mac_x86_newlib/bin/../lib/gcc/x86_64-nacl/4.4.3/../../../../x86_64-nacl/lib/../lib32/libcrt_common.a(lib_a-wctomb_r.o)
 .note.GNU-stack
                0x0000000000000000        0x0 /Users/ap/SDKs/nacl/pepper_31/toolchain/mac_x86_newlib/bin/../lib/gcc/x86_64-nacl/4.4.3/../../../../x86_64-nacl/lib/../lib32/libcrt_common.a(lib_a-wsetup.o)
 .note.GNU-stack
                0x0000000000000000        0x0 /Users/ap/SDKs/nacl/pepper_31/toolchain/mac_x86_newlib/bin/../lib/gcc/x86_64-nacl/4.4.3/../../../../x86_64-nacl/lib/../lib32/libcrt_common.a(lib_a-dtoa.o)
 .note.GNU-stack
                0x0000000000000000        0x0 /Users/ap/SDKs/nacl/pepper_31/toolchain/mac_x86_newlib/bin/../lib/gcc/x86_64-nacl/4.4.3/../../../../x86_64-nacl/lib/../lib32/libcrt_common.a(lib_a-fflush.o)
 .note.GNU-stack
                0x0000000000000000        0x0 /Users/ap/SDKs/nacl/pepper_31/toolchain/mac_x86_newlib/bin/../lib/gcc/x86_64-nacl/4.4.3/../../../../x86_64-nacl/lib/../lib32/libcrt_common.a(lib_a-findfp.o)
 .note.GNU-stack
                0x0000000000000000        0x0 /Users/ap/SDKs/nacl/pepper_31/toolchain/mac_x86_newlib/bin/../lib/gcc/x86_64-nacl/4.4.3/../../../../x86_64-nacl/lib/../lib32/libcrt_common.a(lib_a-fwalk.o)
 .note.GNU-stack
                0x0000000000000000        0x0 /Users/ap/SDKs/nacl/pepper_31/toolchain/mac_x86_newlib/bin/../lib/gcc/x86_64-nacl/4.4.3/../../../../x86_64-nacl/lib/../lib32/libcrt_common.a(lib_a-locale.o)
 .note.GNU-stack
                0x0000000000000000        0x0 /Users/ap/SDKs/nacl/pepper_31/toolchain/mac_x86_newlib/bin/../lib/gcc/x86_64-nacl/4.4.3/../../../../x86_64-nacl/lib/../lib32/libcrt_common.a(lib_a-makebuf.o)
 .note.GNU-stack
                0x0000000000000000        0x0 /Users/ap/SDKs/nacl/pepper_31/toolchain/mac_x86_newlib/bin/../lib/gcc/x86_64-nacl/4.4.3/../../../../x86_64-nacl/lib/../lib32/libcrt_common.a(lib_a-mbtowc_r.o)
 .note.GNU-stack
                0x0000000000000000        0x0 /Users/ap/SDKs/nacl/pepper_31/toolchain/mac_x86_newlib/bin/../lib/gcc/x86_64-nacl/4.4.3/../../../../x86_64-nacl/lib/../lib32/libcrt_common.a(lib_a-mprec.o)
 .note.GNU-stack
                0x0000000000000000        0x0 /Users/ap/SDKs/nacl/pepper_31/toolchain/mac_x86_newlib/bin/../lib/gcc/x86_64-nacl/4.4.3/../../../../x86_64-nacl/lib/../lib32/libcrt_common.a(lib_a-s_fpclassify.o)
 .note.GNU-stack
                0x0000000000000000        0x0 /Users/ap/SDKs/nacl/pepper_31/toolchain/mac_x86_newlib/bin/../lib/gcc/x86_64-nacl/4.4.3/../../../../x86_64-nacl/lib/../lib32/libcrt_common.a(lib_a-s_frexp.o)
 .note.GNU-stack
                0x0000000000000000        0x0 /Users/ap/SDKs/nacl/pepper_31/toolchain/mac_x86_newlib/bin/../lib/gcc/x86_64-nacl/4.4.3/../../../../x86_64-nacl/lib/../lib32/libcrt_common.a(lib_a-stdio.o)
 .note.GNU-stack
                0x0000000000000000        0x0 /Users/ap/SDKs/nacl/pepper_31/toolchain/mac_x86_newlib/bin/../lib/gcc/x86_64-nacl/4.4.3/../../../../x86_64-nacl/lib/../lib32/libcrt_common.a(lib_a-strcasecmp.o)
 .note.GNU-stack
                0x0000000000000000        0x0 /Users/ap/SDKs/nacl/pepper_31/toolchain/mac_x86_newlib/bin/../lib/gcc/x86_64-nacl/4.4.3/../../../../x86_64-nacl/lib/../lib32/libcrt_common.a(lib_a-strcat.o)
 .note.GNU-stack
                0x0000000000000000        0x0 /Users/ap/SDKs/nacl/pepper_31/toolchain/mac_x86_newlib/bin/../lib/gcc/x86_64-nacl/4.4.3/../../../../x86_64-nacl/lib/../lib32/libcrt_common.a(lib_a-strcmp.o)
 .note.GNU-stack
                0x0000000000000000        0x0 /Users/ap/SDKs/nacl/pepper_31/toolchain/mac_x86_newlib/bin/../lib/gcc/x86_64-nacl/4.4.3/../../../../x86_64-nacl/lib/../lib32/libcrt_common.a(lib_a-strcpy.o)
 .note.GNU-stack
                0x0000000000000000        0x0 /Users/ap/SDKs/nacl/pepper_31/toolchain/mac_x86_newlib/bin/../lib/gcc/x86_64-nacl/4.4.3/../../../../x86_64-nacl/lib/../lib32/libcrt_common.a(lib_a-strlcpy.o)
 .note.GNU-stack
                0x0000000000000000        0x0 /Users/ap/SDKs/nacl/pepper_31/toolchain/mac_x86_newlib/bin/../lib/gcc/x86_64-nacl/4.4.3/../../../../x86_64-nacl/lib/../lib32/libcrt_common.a(lib_a-strncasecmp.o)
 .note.GNU-stack
                0x0000000000000000        0x0 /Users/ap/SDKs/nacl/pepper_31/toolchain/mac_x86_newlib/bin/../lib/gcc/x86_64-nacl/4.4.3/../../../../x86_64-nacl/lib/../lib32/libcrt_common.a(lib_a-strncpy.o)
 .note.GNU-stack
                0x0000000000000000        0x0 /Users/ap/SDKs/nacl/pepper_31/toolchain/mac_x86_newlib/bin/../lib/gcc/x86_64-nacl/4.4.3/../../../../x86_64-nacl/lib/../lib32/libcrt_common.a(lib_a-strtol.o)
 .note.GNU-stack
                0x0000000000000000        0x0 /Users/ap/SDKs/nacl/pepper_31/toolchain/mac_x86_newlib/bin/../lib/gcc/x86_64-nacl/4.4.3/../../../../x86_64-nacl/lib/../lib32/libcrt_common.a(lib_a-vfiprintf.o)
 .note.GNU-stack
                0x0000000000000000        0x0 /Users/ap/SDKs/nacl/pepper_31/toolchain/mac_x86_newlib/bin/../lib/gcc/x86_64-nacl/4.4.3/../../../../x86_64-nacl/lib/../lib32/libcrt_common.a(lib_a-wcsnrtombs.o)
 .note.GNU-stack
                0x0000000000000000        0x0 /Users/ap/SDKs/nacl/pepper_31/toolchain/mac_x86_newlib/bin/../lib/gcc/x86_64-nacl/4.4.3/../../../../x86_64-nacl/lib/../lib32/libcrt_common.a(lib_a-writer.o)
 .note.GNU-stack
                0x0000000000000000        0x0 /Users/ap/SDKs/nacl/pepper_31/toolchain/mac_x86_newlib/bin/../lib/gcc/x86_64-nacl/4.4.3/../../../../x86_64-nacl/lib/../lib32/libcrt_common.a(lib_a-closer.o)
 .note.GNU-stack
                0x0000000000000000        0x0 /Users/ap/SDKs/nacl/pepper_31/toolchain/mac_x86_newlib/bin/../lib/gcc/x86_64-nacl/4.4.3/../../../../x86_64-nacl/lib/../lib32/libcrt_common.a(lib_a-ctype_.o)
 .note.GNU-stack
                0x0000000000000000        0x0 /Users/ap/SDKs/nacl/pepper_31/toolchain/mac_x86_newlib/bin/../lib/gcc/x86_64-nacl/4.4.3/../../../../x86_64-nacl/lib/../lib32/libcrt_common.a(lib_a-fclose.o)
 .note.GNU-stack
                0x0000000000000000        0x0 /Users/ap/SDKs/nacl/pepper_31/toolchain/mac_x86_newlib/bin/../lib/gcc/x86_64-nacl/4.4.3/../../../../x86_64-nacl/lib/../lib32/libcrt_common.a(lib_a-fputwc.o)
 .note.GNU-stack
                0x0000000000000000        0x0 /Users/ap/SDKs/nacl/pepper_31/toolchain/mac_x86_newlib/bin/../lib/gcc/x86_64-nacl/4.4.3/../../../../x86_64-nacl/lib/../lib32/libcrt_common.a(lib_a-fstatr.o)
 .note.GNU-stack
                0x0000000000000000        0x0 /Users/ap/SDKs/nacl/pepper_31/toolchain/mac_x86_newlib/bin/../lib/gcc/x86_64-nacl/4.4.3/../../../../x86_64-nacl/lib/../lib32/libcrt_common.a(lib_a-fvwrite.o)
 .note.GNU-stack
                0x0000000000000000        0x0 /Users/ap/SDKs/nacl/pepper_31/toolchain/mac_x86_newlib/bin/../lib/gcc/x86_64-nacl/4.4.3/../../../../x86_64-nacl/lib/../lib32/libcrt_common.a(lib_a-isattyr.o)
 .note.GNU-stack
                0x0000000000000000        0x0 /Users/ap/SDKs/nacl/pepper_31/toolchain/mac_x86_newlib/bin/../lib/gcc/x86_64-nacl/4.4.3/../../../../x86_64-nacl/lib/../lib32/libcrt_common.a(lib_a-lseekr.o)
 .note.GNU-stack
                0x0000000000000000        0x0 /Users/ap/SDKs/nacl/pepper_31/toolchain/mac_x86_newlib/bin/../lib/gcc/x86_64-nacl/4.4.3/../../../../x86_64-nacl/lib/../lib32/libcrt_common.a(lib_a-readr.o)
 .note.GNU-stack
                0x0000000000000000        0x0 /Users/ap/SDKs/nacl/pepper_31/toolchain/mac_x86_newlib/bin/../lib/gcc/x86_64-nacl/4.4.3/../../../../x86_64-nacl/lib/../lib32/libcrt_common.a(lib_a-reent.o)
 .note.GNU-stack
                0x0000000000000000        0x0 /Users/ap/SDKs/nacl/pepper_31/toolchain/mac_x86_newlib/bin/../lib/gcc/x86_64-nacl/4.4.3/../../../../x86_64-nacl/lib/../lib32/libcrt_common.a(lib_a-wbuf.o)
 .note.GNU-stack
                0x0000000000000000        0x0 /Users/ap/SDKs/nacl/pepper_31/toolchain/mac_x86_newlib/bin/../lib/gcc/x86_64-nacl/4.4.3/../../../../x86_64-nacl/lib/../lib32/libcrt_common.a(lib_a-isatty.o)
 .note.GNU-stack
                0x0000000000000000        0x0 /Users/ap/SDKs/nacl/pepper_31/toolchain/mac_x86_newlib/bin/../lib/gcc/x86_64-nacl/4.4.3/../../../../x86_64-nacl/lib/../lib32/libcrt_common.a(lib_a-_isatty.o)
 .note.GNU-stack
                0x0000000000000000        0x0 /Users/ap/SDKs/nacl/pepper_31/toolchain/mac_x86_newlib/bin/../lib/gcc/x86_64-nacl/4.4.3/../../../../x86_64-nacl/lib/../lib32/libnacl.a(close.o)
 .note.GNU-stack
                0x0000000000000000        0x0 /Users/ap/SDKs/nacl/pepper_31/toolchain/mac_x86_newlib/bin/../lib/gcc/x86_64-nacl/4.4.3/../../../../x86_64-nacl/lib/../lib32/libnacl.a(fstat.o)
 .note.GNU-stack
                0x0000000000000000        0x0 /Users/ap/SDKs/nacl/pepper_31/toolchain/mac_x86_newlib/bin/../lib/gcc/x86_64-nacl/4.4.3/../../../../x86_64-nacl/lib/../lib32/libnacl.a(lseek.o)
 .note.GNU-stack
                0x0000000000000000        0x0 /Users/ap/SDKs/nacl/pepper_31/toolchain/mac_x86_newlib/bin/../lib/gcc/x86_64-nacl/4.4.3/../../../../x86_64-nacl/lib/../lib32/libnacl.a(read.o)
 .note.GNU-stack
                0x0000000000000000        0x0 /Users/ap/SDKs/nacl/pepper_31/toolchain/mac_x86_newlib/bin/../lib/gcc/x86_64-nacl/4.4.3/32/libgcc.a(_udivdi3.o)
 .note.GNU-stack
                0x0000000000000000        0x0 /Users/ap/SDKs/nacl/pepper_31/toolchain/mac_x86_newlib/bin/../lib/gcc/x86_64-nacl/4.4.3/32/libgcc.a(_umoddi3.o)
 .note.GNU-stack
                0x0000000000000000        0x0 /Users/ap/SDKs/nacl/pepper_31/toolchain/mac_x86_newlib/bin/../lib/gcc/x86_64-nacl/4.4.3/32/crtend.o

Memory Configuration

Name             Origin             Length             Attributes
*default*        0x0000000000000000 0xffffffffffffffff

Linker script and memory map

LOAD /Users/ap/SDKs/nacl/pepper_31/toolchain/mac_x86_newlib/bin/../lib/gcc/x86_64-nacl/4.4.3/../../../../x86_64-nacl/lib/../lib32/crt1.o
LOAD /Users/ap/SDKs/nacl/pepper_31/toolchain/mac_x86_newlib/bin/../lib/gcc/x86_64-nacl/4.4.3/../../../../x86_64-nacl/lib/../lib32/crti.o
LOAD /Users/ap/SDKs/nacl/pepper_31/toolchain/mac_x86_newlib/bin/../lib/gcc/x86_64-nacl/4.4.3/32/crtbegin.o
LOAD /Users/ap/SDKs/nacl/pepper_31/lib/newlib_x86_32/Release/libppapi_cpp.a
LOAD /Users/ap/SDKs/nacl/pepper_31/toolchain/mac_x86_newlib/bin/../lib/gcc/x86_64-nacl/4.4.3/../../../../x86_64-nacl/lib/../lib32/libppapi.a
LOAD /Users/ap/SDKs/nacl/pepper_31/toolchain/mac_x86_newlib/bin/../lib/gcc/x86_64-nacl/4.4.3/../../../../x86_64-nacl/lib/../lib32/libppapi_stub.a
LOAD /Users/ap/SDKs/nacl/pepper_31/toolchain/mac_x86_newlib/bin/../lib/gcc/x86_64-nacl/4.4.3/../../../../x86_64-nacl/lib/../lib32/libpthread.a
LOAD /Users/ap/SDKs/nacl/pepper_31/toolchain/mac_x86_newlib/bin/../lib/gcc/x86_64-nacl/4.4.3/../../../../x86_64-nacl/lib/../lib32/libstdc++.a
LOAD /Users/ap/SDKs/nacl/pepper_31/toolchain/mac_x86_newlib/bin/../lib/gcc/x86_64-nacl/4.4.3/../../../../x86_64-nacl/lib/../lib32/libm.a
LOAD /Users/ap/SDKs/nacl/pepper_31/toolchain/mac_x86_newlib/bin/../lib/gcc/x86_64-nacl/4.4.3/32/libgcc.a
LOAD /Users/ap/SDKs/nacl/pepper_31/toolchain/mac_x86_newlib/bin/../lib/gcc/x86_64-nacl/4.4.3/../../../../x86_64-nacl/lib/../lib32/libc.a
START GROUP
LOAD /Users/ap/SDKs/nacl/pepper_31/toolchain/mac_x86_newlib/bin/../lib/gcc/x86_64-nacl/4.4.3/../../../../x86_64-nacl/lib/../lib32/libcrt_common.a
LOAD /Users/ap/SDKs/nacl/pepper_31/toolchain/mac_x86_newlib/bin/../lib/gcc/x86_64-nacl/4.4.3/../../../../x86_64-nacl/lib/../lib32/libnacl.a
END GROUP
LOAD /Users/ap/SDKs/nacl/pepper_31/toolchain/mac_x86_newlib/bin/../lib/gcc/x86_64-nacl/4.4.3/32/libgcc.a
LOAD /Users/ap/SDKs/nacl/pepper_31/toolchain/mac_x86_newlib/bin/../lib/gcc/x86_64-nacl/4.4.3/32/crtend.o
LOAD /Users/ap/SDKs/nacl/pepper_31/toolchain/mac_x86_newlib/bin/../lib/gcc/x86_64-nacl/4.4.3/../../../../x86_64-nacl/lib/../lib32/crtn.o
                0x0000000000020000                PROVIDE (__executable_start, 0x20000)
                0x0000000000020000                . = 0x20000

.interp
 *(.interp)

.hash
 *(.hash)

.gnu.hash
 *(.gnu.hash)

.dynsym
 *(.dynsym)

.dynstr
 *(.dynstr)

.gnu.version
 *(.gnu.version)

.gnu.version_d
 *(.gnu.version_d)

.gnu.version_r
 *(.gnu.version_r)

.rel.init
 *(.rel.init)

.rel.text       0x0000000000020000        0x0
 *(.rel.text .rel.text.* .rel.gnu.linkonce.t.*)
 .rel.text      0x0000000000000000        0x0 /Users/ap/SDKs/nacl/pepper_31/toolchain/mac_x86_newlib/bin/../lib/gcc/x86_64-nacl/4.4.3/32/crtbegin.o

.rel.fini
 *(.rel.fini)

.rel.rodata     0x0000000000020000        0x0
 *(.rel.rodata .rel.rodata.* .rel.gnu.linkonce.r.*)
 .rel.rodata    0x0000000000000000        0x0 /Users/ap/SDKs/nacl/pepper_31/toolchain/mac_x86_newlib/bin/../lib/gcc/x86_64-nacl/4.4.3/32/crtbegin.o

.rel.data.rel.ro
 *(.rel.data.rel.ro* .rel.gnu.linkonce.d.rel.ro.*)

.rel.data
 *(.rel.data .rel.data.* .rel.gnu.linkonce.d.*)

.rel.tdata
 *(.rel.tdata .rel.tdata.* .rel.gnu.linkonce.td.*)

.rel.tbss
 *(.rel.tbss .rel.tbss.* .rel.gnu.linkonce.tb.*)

.rel.ctors
 *(.rel.ctors)

.rel.dtors
 *(.rel.dtors)

.rel.got        0x0000000000020000        0x0
 *(.rel.got)
 .rel.got       0x0000000000000000        0x0 /Users/ap/SDKs/nacl/pepper_31/toolchain/mac_x86_newlib/bin/../lib/gcc/x86_64-nacl/4.4.3/32/crtbegin.o

.rel.bss
 *(.rel.bss .rel.bss.* .rel.gnu.linkonce.b.*)

.rel.ifunc
 *(.rel.ifunc)

.rel.plt        0x0000000000020000        0x0
 *(.rel.plt)
                0x0000000000020000                PROVIDE (__rel_iplt_start, .)
 *(.rel.iplt)
 .rel.iplt      0x0000000000000000        0x0 /Users/ap/SDKs/nacl/pepper_31/toolchain/mac_x86_newlib/bin/../lib/gcc/x86_64-nacl/4.4.3/32/crtbegin.o
                0x0000000000020000                PROVIDE (__rel_iplt_end, .)

.init           0x0000000000020000       0x80
 *(.init)
 .init          0x0000000000020000       0x20 /Users/ap/SDKs/nacl/pepper_31/toolchain/mac_x86_newlib/bin/../lib/gcc/x86_64-nacl/4.4.3/../../../../x86_64-nacl/lib/../lib32/crti.o
                0x0000000000020000                _init
 .init          0x0000000000020020       0x20 /Users/ap/SDKs/nacl/pepper_31/toolchain/mac_x86_newlib/bin/../lib/gcc/x86_64-nacl/4.4.3/32/crtbegin.o
 .init          0x0000000000020040       0x20 /Users/ap/SDKs/nacl/pepper_31/toolchain/mac_x86_newlib/bin/../lib/gcc/x86_64-nacl/4.4.3/32/crtend.o
 .init          0x0000000000020060       0x20 /Users/ap/SDKs/nacl/pepper_31/toolchain/mac_x86_newlib/bin/../lib/gcc/x86_64-nacl/4.4.3/../../../../x86_64-nacl/lib/../lib32/crtn.o

.plt            0x0000000000020080        0x0
 *(.plt)
 *(.iplt)
 .iplt          0x0000000000000000        0x0 /Users/ap/SDKs/nacl/pepper_31/toolchain/mac_x86_newlib/bin/../lib/gcc/x86_64-nacl/4.4.3/32/crtbegin.o

.text           0x0000000000020080    0x1d300
 *(.text .stub .text.* .gnu.linkonce.t.*)
 .text          0x0000000000020080        0x0 /Users/ap/SDKs/nacl/pepper_31/toolchain/mac_x86_newlib/bin/../lib/gcc/x86_64-nacl/4.4.3/../../../../x86_64-nacl/lib/../lib32/crti.o
 .text          0x0000000000020080      0x160 /Users/ap/SDKs/nacl/pepper_31/toolchain/mac_x86_newlib/bin/../lib/gcc/x86_64-nacl/4.4.3/32/crtbegin.o
 .text          0x00000000000201e0       0x40 /Users/ap/SDKs/nacl/pepper_31/toolchain/mac_x86_newlib/bin/../lib/gcc/x86_64-nacl/4.4.3/../../../../x86_64-nacl/lib/../lib32/libppapi_stub.a(plugin_main_irt.o)
                0x00000000000201e0                main
 .text          0x0000000000020220       0x40 /Users/ap/SDKs/nacl/pepper_31/toolchain/mac_x86_newlib/bin/../lib/gcc/x86_64-nacl/4.4.3/../../../../x86_64-nacl/lib/../lib32/libppapi_stub.a(ppapi_plugin_main.o)
                0x0000000000020220                PpapiPluginMain
 .text          0x0000000000020260      0x1e0 /Users/ap/SDKs/nacl/pepper_31/toolchain/mac_x86_newlib/bin/../lib/gcc/x86_64-nacl/4.4.3/../../../../x86_64-nacl/lib/../lib32/libppapi_stub.a(ppapi_plugin_start.o)
                0x00000000000202c0                PpapiPluginStart
 .text          0x0000000000020440       0xc0 /Users/ap/SDKs/nacl/pepper_31/toolchain/mac_x86_newlib/bin/../lib/gcc/x86_64-nacl/4.4.3/../../../../x86_64-nacl/lib/../lib32/libppapi_stub.a(thread_creator.o)
                0x0000000000020440                __nacl_register_thread_creator
 .text          0x0000000000020500     0x1bc0 /Users/ap/SDKs/nacl/pepper_31/toolchain/mac_x86_newlib/bin/../lib/gcc/x86_64-nacl/4.4.3/../../../../x86_64-nacl/lib/../lib32/libpthread.a(nc_thread.o)
                0x0000000000020500                pthread_kill
                0x0000000000020520                pthread_equal
                0x0000000000020540                pthread_attr_init
                0x0000000000020580                pthread_attr_destroy
                0x00000000000205a0                pthread_attr_setdetachstate
                0x00000000000205e0                pthread_attr_getdetachstate
                0x0000000000020620                pthread_attr_setstacksize
                0x00000000000206a0                pthread_attr_getstacksize
                0x00000000000206e0                pthread_getspecific
                0x0000000000020760                __nc_tsd_exit
                0x0000000000020900                pthread_cleanup_pop
                0x00000000000209a0                pthread_setspecific
                0x0000000000020aa0                pthread_key_delete
                0x0000000000020b40                pthread_key_create
                0x0000000000020be0                __local_lock_release
                0x0000000000020c20                __local_lock_release_recursive
                0x0000000000020c40                __local_lock_try_acquire
                0x0000000000020ca0                __local_lock_try_acquire_recursive
                0x0000000000020cc0                __local_lock_acquire
                0x0000000000020d00                __local_lock_acquire_recursive
                0x0000000000020d20                __local_lock_close
                0x0000000000020d60                __local_lock_close_recursive
                0x0000000000020d80                __local_lock_init_recursive
                0x0000000000020e00                __local_lock_init
                0x0000000000020e80                pthread_self
                0x0000000000020ec0                pthread_setschedprio
                0x0000000000020f80                pthread_detach
                0x0000000000021060                pthread_join
                0x0000000000021220                pthread_exit
                0x0000000000021640                pthread_cleanup_push
                0x00000000000219a0                pthread_create
                0x0000000000021ee0                __nc_initialize_globals
                0x0000000000022020                __pthread_initialize
 .text          0x00000000000220c0      0x1e0 /Users/ap/SDKs/nacl/pepper_31/toolchain/mac_x86_newlib/bin/../lib/gcc/x86_64-nacl/4.4.3/../../../../x86_64-nacl/lib/../lib32/libpthread.a(nc_condvar.o)
                0x00000000000220c0                pthread_cond_init
                0x00000000000220e0                pthread_cond_destroy
                0x0000000000022100                pthread_cond_timedwait_abs
                0x00000000000221e0                pthread_cond_wait
                0x0000000000022260                pthread_cond_broadcast
                0x0000000000022280                pthread_cond_signal
 .text          0x00000000000222a0      0x540 /Users/ap/SDKs/nacl/pepper_31/toolchain/mac_x86_newlib/bin/../lib/gcc/x86_64-nacl/4.4.3/../../../../x86_64-nacl/lib/../lib32/libpthread.a(dynamic_annotations.o)
                0x00000000000222a0                NACL_AnnotateRWLockCreate
                0x00000000000222c0                NACL_AnnotateRWLockDestroy
                0x00000000000222e0                NACL_AnnotateRWLockAcquired
                0x0000000000022300                NACL_AnnotateRWLockReleased
                0x0000000000022320                NACL_AnnotateBarrierInit
                0x0000000000022340                NACL_AnnotateBarrierWaitBefore
                0x0000000000022360                NACL_AnnotateBarrierWaitAfter
                0x0000000000022380                NACL_AnnotateBarrierDestroy
                0x00000000000223a0                NACL_AnnotateCondVarWait
                0x00000000000223c0                NACL_AnnotateCondVarSignal
                0x00000000000223e0                NACL_AnnotateCondVarSignalAll
                0x0000000000022400                NACL_AnnotateHappensBefore
                0x0000000000022420                NACL_AnnotateHappensAfter
                0x0000000000022440                NACL_AnnotatePublishMemoryRange
                0x0000000000022460                NACL_AnnotateUnpublishMemoryRange
                0x0000000000022480                NACL_AnnotatePCQCreate
                0x00000000000224a0                NACL_AnnotatePCQDestroy
                0x00000000000224c0                NACL_AnnotatePCQPut
                0x00000000000224e0                NACL_AnnotatePCQGet
                0x0000000000022500                NACL_AnnotateNewMemory
                0x0000000000022520                NACL_AnnotateExpectRace
                0x0000000000022540                NACL_AnnotateFlushExpectedRaces
                0x0000000000022560                NACL_AnnotateBenignRace
                0x0000000000022580                NACL_AnnotateBenignRaceSized
                0x00000000000225a0                NACL_AnnotateMutexIsUsedAsCondVar
                0x00000000000225c0                NACL_AnnotateMutexIsNotPHB
                0x00000000000225e0                NACL_AnnotateTraceMemory
                0x0000000000022600                NACL_AnnotateThreadName
                0x0000000000022620                NACL_AnnotateIgnoreReadsBegin
                0x0000000000022640                NACL_AnnotateIgnoreReadsEnd
                0x0000000000022660                NACL_AnnotateIgnoreWritesBegin
                0x0000000000022680                NACL_AnnotateIgnoreWritesEnd
                0x00000000000226a0                NACL_AnnotateIgnoreSyncBegin
                0x00000000000226c0                NACL_AnnotateIgnoreSyncEnd
                0x00000000000226e0                NACL_AnnotateEnableRaceDetection
                0x0000000000022700                NACL_AnnotateNoOp
                0x0000000000022720                NACL_AnnotateFlushState
                0x0000000000022740                RunningOnValgrind
 .text          0x00000000000227e0      0x6a0 /Users/ap/SDKs/nacl/pepper_31/toolchain/mac_x86_newlib/bin/../lib/gcc/x86_64-nacl/4.4.3/../../../../x86_64-nacl/lib/../lib32/libpthread.a(nc_mutex.o)
                0x00000000000227e0                pthread_mutex_init
                0x0000000000022840                pthread_mutex_destroy
                0x00000000000228a0                pthread_mutexattr_init
                0x00000000000228c0                pthread_mutexattr_destroy
                0x00000000000228e0                pthread_mutexattr_settype
                0x0000000000022920                pthread_mutexattr_gettype
                0x0000000000022940                pthread_mutex_unlock
                0x0000000000022d20                pthread_mutex_timedlock
                0x0000000000022d40                pthread_mutex_lock
                0x0000000000022d60                pthread_once
                0x0000000000022e60                pthread_mutex_trylock
 .text          0x0000000000022e80       0xa0 /Users/ap/SDKs/nacl/pepper_31/toolchain/mac_x86_newlib/bin/../lib/gcc/x86_64-nacl/4.4.3/../../../../x86_64-nacl/lib/../lib32/libpthread.a(nc_init_irt.o)
                0x0000000000022e80                __nc_futex_init
                0x0000000000022ea0                __nc_futex_thread_exit
                0x0000000000022ec0                __nc_initialize_interfaces
 .text          0x0000000000022f20        0x0 /Users/ap/SDKs/nacl/pepper_31/toolchain/mac_x86_newlib/bin/../lib/gcc/x86_64-nacl/4.4.3/../../../../x86_64-nacl/lib/../lib32/libcrt_common.a(lib_a-environ.o)
 .text          0x0000000000022f20       0x60 /Users/ap/SDKs/nacl/pepper_31/toolchain/mac_x86_newlib/bin/../lib/gcc/x86_64-nacl/4.4.3/../../../../x86_64-nacl/lib/../lib32/libcrt_common.a(lib_a-exit.o)
                0x0000000000022f20                exit
 .text          0x0000000000022f80       0xc0 /Users/ap/SDKs/nacl/pepper_31/toolchain/mac_x86_newlib/bin/../lib/gcc/x86_64-nacl/4.4.3/../../../../x86_64-nacl/lib/../lib32/libcrt_common.a(lib_a-getenv.o)
                0x0000000000022f80                getenv
                0x0000000000022fe0                _findenv
 .text          0x0000000000023040      0x240 /Users/ap/SDKs/nacl/pepper_31/toolchain/mac_x86_newlib/bin/../lib/gcc/x86_64-nacl/4.4.3/../../../../x86_64-nacl/lib/../lib32/libcrt_common.a(lib_a-getenv_r.o)
                0x0000000000023040                _findenv_r
                0x0000000000023240                _getenv_r
 .text          0x0000000000023280       0x80 /Users/ap/SDKs/nacl/pepper_31/toolchain/mac_x86_newlib/bin/../lib/gcc/x86_64-nacl/4.4.3/../../../../x86_64-nacl/lib/../lib32/libcrt_common.a(lib_a-impure.o)
                0x0000000000023280                __newlib_thread_init
                0x00000000000232e0                __newlib_thread_exit
 .text          0x0000000000023300       0xa0 /Users/ap/SDKs/nacl/pepper_31/toolchain/mac_x86_newlib/bin/../lib/gcc/x86_64-nacl/4.4.3/../../../../x86_64-nacl/lib/../lib32/libcrt_common.a(lib_a-strlen.o)
                0x0000000000023300                strlen
 .text          0x00000000000233a0      0x1a0 /Users/ap/SDKs/nacl/pepper_31/toolchain/mac_x86_newlib/bin/../lib/gcc/x86_64-nacl/4.4.3/../../../../x86_64-nacl/lib/../lib32/libcrt_common.a(lib_a-strncmp.o)
                0x00000000000233a0                strncmp
 .text          0x0000000000023540      0x300 /Users/ap/SDKs/nacl/pepper_31/toolchain/mac_x86_newlib/bin/../lib/gcc/x86_64-nacl/4.4.3/../../../../x86_64-nacl/lib/../lib32/libcrt_common.a(lib_a-__call_atexit.o)
                0x0000000000023540                __call_exitprocs
 .text          0x0000000000023840       0x40 /Users/ap/SDKs/nacl/pepper_31/toolchain/mac_x86_newlib/bin/../lib/gcc/x86_64-nacl/4.4.3/../../../../x86_64-nacl/lib/../lib32/libcrt_common.a(lib_a-envlock.o)
                0x0000000000023840                __env_unlock
                0x0000000000023860                __env_lock
 .text          0x0000000000023880      0x220 /Users/ap/SDKs/nacl/pepper_31/toolchain/mac_x86_newlib/bin/../lib/gcc/x86_64-nacl/4.4.3/../../../../x86_64-nacl/lib/../lib32/libcrt_common.a(lib_a-__atexit.o)
                0x0000000000023880                __register_exitproc
 .text          0x0000000000023aa0       0x40 /Users/ap/SDKs/nacl/pepper_31/toolchain/mac_x86_newlib/bin/../lib/gcc/x86_64-nacl/4.4.3/../../../../x86_64-nacl/lib/../lib32/libnacl.a(_exit.o)
                0x0000000000023aa0                _exit
 .text          0x0000000000023ae0      0x120 /Users/ap/SDKs/nacl/pepper_31/toolchain/mac_x86_newlib/bin/../lib/gcc/x86_64-nacl/4.4.3/../../../../x86_64-nacl/lib/../lib32/libnacl.a(start.o)
                0x0000000000023ae0                _start
 .text          0x0000000000023c00     0x64c0 /Users/ap/SDKs/nacl/pepper_31/toolchain/mac_x86_newlib/bin/../lib/gcc/x86_64-nacl/4.4.3/../../../../x86_64-nacl/lib/../lib32/libnacl.a(malloc.o)
                0x0000000000023c00                malloc_footprint
                0x0000000000023c20                malloc_max_footprint
                0x0000000000023c40                malloc_footprint_limit
                0x0000000000023c60                malloc_set_footprint_limit
                0x0000000000023ca0                malloc_usable_size
                0x0000000000023ee0                mallopt
                0x0000000000025440                bulk_free
                0x0000000000025640                malloc_trim
                0x0000000000025760                free
                0x0000000000026340                _free_r
                0x0000000000026360                mallinfo
                0x0000000000026700                malloc_stats
                0x0000000000026a20                malloc
                0x0000000000028ae0                _malloc_r
                0x0000000000028b00                calloc
                0x0000000000028bc0                _calloc_r
                0x0000000000029200                realloc
                0x0000000000029480                _realloc_r
                0x00000000000294a0                realloc_in_place
                0x0000000000029980                memalign
                0x00000000000299c0                pvalloc
                0x0000000000029a20                valloc
                0x0000000000029a80                posix_memalign
                0x000000000002a040                independent_calloc
                0x000000000002a0a0                independent_comalloc
 .text          0x000000000002a0c0      0x540 /Users/ap/SDKs/nacl/pepper_31/toolchain/mac_x86_newlib/bin/../lib/gcc/x86_64-nacl/4.4.3/../../../../x86_64-nacl/lib/../lib32/libnacl.a(nacl_irt.o)
                0x000000000002a1e0                __libnacl_irt_query
                0x000000000002a2e0                __libnacl_mandatory_irt_query
                0x000000000002a3c0                __libnacl_irt_init
 .text          0x000000000002a600      0x100 /Users/ap/SDKs/nacl/pepper_31/toolchain/mac_x86_newlib/bin/../lib/gcc/x86_64-nacl/4.4.3/../../../../x86_64-nacl/lib/../lib32/libnacl.a(pthread_initialize_minimal.o)
                0x000000000002a600                __pthread_initialize_minimal
 .text          0x000000000002a700       0x20 /Users/ap/SDKs/nacl/pepper_31/toolchain/mac_x86_newlib/bin/../lib/gcc/x86_64-nacl/4.4.3/../../../../x86_64-nacl/lib/../lib32/libnacl.a(nacl_read_tp.o)
                0x000000000002a700                __nacl_read_tp
 .text          0x000000000002a720       0xc0 /Users/ap/SDKs/nacl/pepper_31/toolchain/mac_x86_newlib/bin/../lib/gcc/x86_64-nacl/4.4.3/../../../../x86_64-nacl/lib/../lib32/libnacl.a(mmap.o)
                0x000000000002a720                mmap
 .text          0x000000000002a7e0       0xa0 /Users/ap/SDKs/nacl/pepper_31/toolchain/mac_x86_newlib/bin/../lib/gcc/x86_64-nacl/4.4.3/../../../../x86_64-nacl/lib/../lib32/libnacl.a(sched_yield.o)
                0x000000000002a7e0                sched_yield
 .text          0x000000000002a880       0xa0 /Users/ap/SDKs/nacl/pepper_31/toolchain/mac_x86_newlib/bin/../lib/gcc/x86_64-nacl/4.4.3/../../../../x86_64-nacl/lib/../lib32/libnacl.a(munmap.o)
                0x000000000002a880                munmap
 .text          0x000000000002a920      0x2e0 /Users/ap/SDKs/nacl/pepper_31/toolchain/mac_x86_newlib/bin/../lib/gcc/x86_64-nacl/4.4.3/../../../../x86_64-nacl/lib/../lib32/libnacl.a(tls.o)
                0x000000000002aa80                __nacl_tls_combined_size
                0x000000000002ab00                __nacl_tls_initialize_memory
 .text          0x000000000002ac00       0xc0 /Users/ap/SDKs/nacl/pepper_31/toolchain/mac_x86_newlib/bin/../lib/gcc/x86_64-nacl/4.4.3/../../../../x86_64-nacl/lib/../lib32/libnacl.a(write.o)
                0x000000000002ac00                write
 .text          0x000000000002acc0       0xa0 /Users/ap/SDKs/nacl/pepper_31/toolchain/mac_x86_newlib/bin/../lib/gcc/x86_64-nacl/4.4.3/../../../../x86_64-nacl/lib/../lib32/libnacl.a(sysconf.o)
                0x000000000002acc0                sysconf
 .text          0x000000000002ad60       0x20 /Users/ap/SDKs/nacl/pepper_31/toolchain/mac_x86_newlib/bin/../lib/gcc/x86_64-nacl/4.4.3/../../../../x86_64-nacl/lib/../lib32/libnacl.a(nacl_tls_init.o)
                0x000000000002ad60                nacl_tls_init
 .text          0x000000000002ad80       0x20 /Users/ap/SDKs/nacl/pepper_31/toolchain/mac_x86_newlib/bin/../lib/gcc/x86_64-nacl/4.4.3/../../../../x86_64-nacl/lib/../lib32/libcrt_common.a(lib_a-abort.o)
                0x000000000002ad80                abort
 .text          0x000000000002ada0       0x60 /Users/ap/SDKs/nacl/pepper_31/toolchain/mac_x86_newlib/bin/../lib/gcc/x86_64-nacl/4.4.3/../../../../x86_64-nacl/lib/../lib32/libcrt_common.a(lib_a-atexit.o)
                0x000000000002ada0                atexit
 .text          0x000000000002ae00       0x40 /Users/ap/SDKs/nacl/pepper_31/toolchain/mac_x86_newlib/bin/../lib/gcc/x86_64-nacl/4.4.3/../../../../x86_64-nacl/lib/../lib32/libcrt_common.a(lib_a-errno.o)
                0x000000000002ae00                __errno
 .text          0x000000000002ae40       0x80 /Users/ap/SDKs/nacl/pepper_31/toolchain/mac_x86_newlib/bin/../lib/gcc/x86_64-nacl/4.4.3/../../../../x86_64-nacl/lib/../lib32/libcrt_common.a(lib_a-fini.o)
                0x000000000002ae40                __libc_fini_array
 .text          0x000000000002aec0       0xe0 /Users/ap/SDKs/nacl/pepper_31/toolchain/mac_x86_newlib/bin/../lib/gcc/x86_64-nacl/4.4.3/../../../../x86_64-nacl/lib/../lib32/libcrt_common.a(lib_a-fprintf.o)
                0x000000000002aec0                fprintf
                0x000000000002af40                _fprintf_r
 .text          0x000000000002afa0      0x100 /Users/ap/SDKs/nacl/pepper_31/toolchain/mac_x86_newlib/bin/../lib/gcc/x86_64-nacl/4.4.3/../../../../x86_64-nacl/lib/../lib32/libcrt_common.a(lib_a-init.o)
                0x000000000002afa0                __libc_init_array
 .text          0x000000000002b0a0       0x60 /Users/ap/SDKs/nacl/pepper_31/toolchain/mac_x86_newlib/bin/../lib/gcc/x86_64-nacl/4.4.3/../../../../x86_64-nacl/lib/../lib32/libcrt_common.a(lib_a-memcpy.o)
                0x000000000002b0a0                memcpy
 .text          0x000000000002b100       0xa0 /Users/ap/SDKs/nacl/pepper_31/toolchain/mac_x86_newlib/bin/../lib/gcc/x86_64-nacl/4.4.3/../../../../x86_64-nacl/lib/../lib32/libcrt_common.a(lib_a-memset.o)
                0x000000000002b100                memset
 .text          0x000000000002b1a0     0x4860 /Users/ap/SDKs/nacl/pepper_31/toolchain/mac_x86_newlib/bin/../lib/gcc/x86_64-nacl/4.4.3/../../../../x86_64-nacl/lib/../lib32/libcrt_common.a(lib_a-vfprintf.o)
                0x000000000002b1a0                _vfprintf_r
                0x000000000002f9a0                vfprintf
 .text          0x000000000002fa00      0x2c0 /Users/ap/SDKs/nacl/pepper_31/toolchain/mac_x86_newlib/bin/../lib/gcc/x86_64-nacl/4.4.3/../../../../x86_64-nacl/lib/../lib32/libcrt_common.a(lib_a-wcrtomb.o)
                0x000000000002fa00                wcrtomb
                0x000000000002fbc0                _wcrtomb_r
 .text          0x000000000002fcc0       0xe0 /Users/ap/SDKs/nacl/pepper_31/toolchain/mac_x86_newlib/bin/../lib/gcc/x86_64-nacl/4.4.3/../../../../x86_64-nacl/lib/../lib32/libcrt_common.a(lib_a-wcsrtombs.o)
                0x000000000002fcc0                wcsrtombs
                0x000000000002fd40                _wcsrtombs_r
 .text          0x000000000002fda0      0x540 /Users/ap/SDKs/nacl/pepper_31/toolchain/mac_x86_newlib/bin/../lib/gcc/x86_64-nacl/4.4.3/../../../../x86_64-nacl/lib/../lib32/libcrt_common.a(lib_a-wctomb_r.o)
                0x000000000002fda0                __ascii_wctomb
                0x000000000002fe00                __utf8_wctomb
                0x000000000002ff60                __sjis_wctomb
                0x0000000000030040                __eucjp_wctomb
                0x0000000000030140                __jis_wctomb
                0x0000000000030260                _wctomb_r
 .text          0x00000000000302e0      0x280 /Users/ap/SDKs/nacl/pepper_31/toolchain/mac_x86_newlib/bin/../lib/gcc/x86_64-nacl/4.4.3/../../../../x86_64-nacl/lib/../lib32/libcrt_common.a(lib_a-wsetup.o)
                0x00000000000302e0                __swsetup_r
 .text          0x0000000000030560     0x2260 /Users/ap/SDKs/nacl/pepper_31/toolchain/mac_x86_newlib/bin/../lib/gcc/x86_64-nacl/4.4.3/../../../../x86_64-nacl/lib/../lib32/libcrt_common.a(lib_a-dtoa.o)
                0x0000000000030880                _dtoa_r
 .text          0x00000000000327c0      0x5c0 /Users/ap/SDKs/nacl/pepper_31/toolchain/mac_x86_newlib/bin/../lib/gcc/x86_64-nacl/4.4.3/../../../../x86_64-nacl/lib/../lib32/libcrt_common.a(lib_a-fflush.o)
                0x00000000000327c0                __sflush_r
                0x0000000000032bc0                _fflush_r
                0x0000000000032ce0                fflush
 .text          0x0000000000032d80      0x860 /Users/ap/SDKs/nacl/pepper_31/toolchain/mac_x86_newlib/bin/../lib/gcc/x86_64-nacl/4.4.3/../../../../x86_64-nacl/lib/../lib32/libcrt_common.a(lib_a-findfp.o)
                0x0000000000032d80                _cleanup_r
                0x0000000000032dc0                _cleanup
                0x0000000000032e40                __sinit_lock_release
                0x0000000000032e80                __sfp_lock_release
                0x0000000000032ec0                __fp_unlock_all
                0x0000000000032f60                __sinit_lock_acquire
                0x0000000000032fa0                __sfp_lock_acquire
                0x0000000000032fe0                __fp_lock_all
                0x0000000000033120                __sinit
                0x00000000000332c0                __sfmoreglue
                0x0000000000033360                __sfp
 .text          0x00000000000335e0      0x360 /Users/ap/SDKs/nacl/pepper_31/toolchain/mac_x86_newlib/bin/../lib/gcc/x86_64-nacl/4.4.3/../../../../x86_64-nacl/lib/../lib32/libcrt_common.a(lib_a-fwalk.o)
                0x00000000000335e0                _fwalk_reent
                0x0000000000033760                _fwalk
 .text          0x0000000000033940     0x1880 /Users/ap/SDKs/nacl/pepper_31/toolchain/mac_x86_newlib/bin/../lib/gcc/x86_64-nacl/4.4.3/../../../../x86_64-nacl/lib/../lib32/libcrt_common.a(lib_a-locale.o)
                0x0000000000033940                __locale_charset
                0x0000000000033960                __locale_mb_cur_max
                0x0000000000033980                __locale_msgcharset
                0x00000000000339a0                __locale_cjk_lang
                0x00000000000339c0                _localeconv_r
                0x00000000000339e0                localeconv
                0x0000000000034aa0                _setlocale_r
                0x0000000000035160                setlocale
 .text          0x00000000000351c0      0x260 /Users/ap/SDKs/nacl/pepper_31/toolchain/mac_x86_newlib/bin/../lib/gcc/x86_64-nacl/4.4.3/../../../../x86_64-nacl/lib/../lib32/libcrt_common.a(lib_a-makebuf.o)
                0x00000000000351c0                __smakebuf_r
 .text          0x0000000000035420      0xd20 /Users/ap/SDKs/nacl/pepper_31/toolchain/mac_x86_newlib/bin/../lib/gcc/x86_64-nacl/4.4.3/../../../../x86_64-nacl/lib/../lib32/libcrt_common.a(lib_a-mbtowc_r.o)
                0x0000000000035420                __ascii_mbtowc
                0x00000000000354a0                __utf8_mbtowc
                0x0000000000035a40                __sjis_mbtowc
                0x0000000000035bc0                __eucjp_mbtowc
                0x0000000000035e20                __jis_mbtowc
                0x00000000000360c0                _mbtowc_r
 .text          0x0000000000036140       0xa0 /Users/ap/SDKs/nacl/pepper_31/toolchain/mac_x86_newlib/bin/../lib/gcc/x86_64-nacl/4.4.3/../../../../x86_64-nacl/lib/../lib32/libcrt_common.a(lib_a-memchr.o)
                0x0000000000036140                memchr
 .text          0x00000000000361e0     0x1840 /Users/ap/SDKs/nacl/pepper_31/toolchain/mac_x86_newlib/bin/../lib/gcc/x86_64-nacl/4.4.3/../../../../x86_64-nacl/lib/../lib32/libcrt_common.a(lib_a-mprec.o)
                0x00000000000361e0                _Bfree
                0x0000000000036220                __hi0bits
                0x00000000000362e0                __lo0bits
                0x0000000000036460                __mcmp
                0x0000000000036500                __ulp
                0x00000000000365e0                __b2d
                0x0000000000036760                __ratio
                0x0000000000036800                _mprec_log10
                0x0000000000036860                __copybits
                0x0000000000036920                __any_on
                0x0000000000036a40                _Balloc
                0x0000000000036b60                __d2b
                0x0000000000036d40                __mdiff
                0x0000000000036fc0                __lshift
                0x0000000000037180                __multiply
                0x0000000000037480                __i2b
                0x00000000000374c0                __multadd
                0x0000000000037600                __pow5mult
                0x0000000000037840                __s2b
 .text          0x0000000000037a20      0x140 /Users/ap/SDKs/nacl/pepper_31/toolchain/mac_x86_newlib/bin/../lib/gcc/x86_64-nacl/4.4.3/../../../../x86_64-nacl/lib/../lib32/libcrt_common.a(lib_a-s_fpclassify.o)
                0x0000000000037a20                __fpclassifyd
 .text          0x0000000000037b60       0xe0 /Users/ap/SDKs/nacl/pepper_31/toolchain/mac_x86_newlib/bin/../lib/gcc/x86_64-nacl/4.4.3/../../../../x86_64-nacl/lib/../lib32/libcrt_common.a(lib_a-s_frexp.o)
                0x0000000000037b60                frexp
 .text          0x0000000000037c40      0x200 /Users/ap/SDKs/nacl/pepper_31/toolchain/mac_x86_newlib/bin/../lib/gcc/x86_64-nacl/4.4.3/../../../../x86_64-nacl/lib/../lib32/libcrt_common.a(lib_a-stdio.o)
                0x0000000000037c40                __seofread
                0x0000000000037c60                __sclose
                0x0000000000037c80                __sseek
                0x0000000000037d00                __swrite
                0x0000000000037dc0                __sread
 .text          0x0000000000037e40       0x80 /Users/ap/SDKs/nacl/pepper_31/toolchain/mac_x86_newlib/bin/../lib/gcc/x86_64-nacl/4.4.3/../../../../x86_64-nacl/lib/../lib32/libcrt_common.a(lib_a-strcasecmp.o)
                0x0000000000037e40                strcasecmp
 .text          0x0000000000037ec0       0xe0 /Users/ap/SDKs/nacl/pepper_31/toolchain/mac_x86_newlib/bin/../lib/gcc/x86_64-nacl/4.4.3/../../../../x86_64-nacl/lib/../lib32/libcrt_common.a(lib_a-strcat.o)
                0x0000000000037ec0                strcat
 .text          0x0000000000037fa0      0x120 /Users/ap/SDKs/nacl/pepper_31/toolchain/mac_x86_newlib/bin/../lib/gcc/x86_64-nacl/4.4.3/../../../../x86_64-nacl/lib/../lib32/libcrt_common.a(lib_a-strchr.o)
                0x0000000000037fa0                strchr
 .text          0x00000000000380c0      0x100 /Users/ap/SDKs/nacl/pepper_31/toolchain/mac_x86_newlib/bin/../lib/gcc/x86_64-nacl/4.4.3/../../../../x86_64-nacl/lib/../lib32/libcrt_common.a(lib_a-strcmp.o)
                0x00000000000380c0                strcmp
 .text          0x00000000000381c0       0xa0 /Users/ap/SDKs/nacl/pepper_31/toolchain/mac_x86_newlib/bin/../lib/gcc/x86_64-nacl/4.4.3/../../../../x86_64-nacl/lib/../lib32/libcrt_common.a(lib_a-strcpy.o)
                0x00000000000381c0                strcpy
 .text          0x0000000000038260       0xa0 /Users/ap/SDKs/nacl/pepper_31/toolchain/mac_x86_newlib/bin/../lib/gcc/x86_64-nacl/4.4.3/../../../../x86_64-nacl/lib/../lib32/libcrt_common.a(lib_a-strlcpy.o)
                0x0000000000038260                strlcpy
 .text          0x0000000000038300       0xa0 /Users/ap/SDKs/nacl/pepper_31/toolchain/mac_x86_newlib/bin/../lib/gcc/x86_64-nacl/4.4.3/../../../../x86_64-nacl/lib/../lib32/libcrt_common.a(lib_a-strncasecmp.o)
                0x0000000000038300                strncasecmp
 .text          0x00000000000383a0      0x140 /Users/ap/SDKs/nacl/pepper_31/toolchain/mac_x86_newlib/bin/../lib/gcc/x86_64-nacl/4.4.3/../../../../x86_64-nacl/lib/../lib32/libcrt_common.a(lib_a-strncpy.o)
                0x00000000000383a0                strncpy
 .text          0x00000000000384e0      0x380 /Users/ap/SDKs/nacl/pepper_31/toolchain/mac_x86_newlib/bin/../lib/gcc/x86_64-nacl/4.4.3/../../../../x86_64-nacl/lib/../lib32/libcrt_common.a(lib_a-strtol.o)
                0x00000000000384e0                _strtol_r
                0x0000000000038800                strtol
 .text          0x0000000000038860     0x26c0 /Users/ap/SDKs/nacl/pepper_31/toolchain/mac_x86_newlib/bin/../lib/gcc/x86_64-nacl/4.4.3/../../../../x86_64-nacl/lib/../lib32/libcrt_common.a(lib_a-vfiprintf.o)
                0x0000000000038860                __sprint_r
                0x0000000000038a00                _vfiprintf_r
                0x000000000003aec0                vfiprintf
 .text          0x000000000003af20      0x300 /Users/ap/SDKs/nacl/pepper_31/toolchain/mac_x86_newlib/bin/../lib/gcc/x86_64-nacl/4.4.3/../../../../x86_64-nacl/lib/../lib32/libcrt_common.a(lib_a-wcsnrtombs.o)
                0x000000000003af20                _wcsnrtombs_r
                0x000000000003b1a0                wcsnrtombs
 .text          0x000000000003b220       0xa0 /Users/ap/SDKs/nacl/pepper_31/toolchain/mac_x86_newlib/bin/../lib/gcc/x86_64-nacl/4.4.3/../../../../x86_64-nacl/lib/../lib32/libcrt_common.a(lib_a-writer.o)
                0x000000000003b220                _write_r
 .text          0x000000000003b2c0       0x80 /Users/ap/SDKs/nacl/pepper_31/toolchain/mac_x86_newlib/bin/../lib/gcc/x86_64-nacl/4.4.3/../../../../x86_64-nacl/lib/../lib32/libcrt_common.a(lib_a-closer.o)
                0x000000000003b2c0                _close_r
 .text          0x000000000003b340       0x20 /Users/ap/SDKs/nacl/pepper_31/toolchain/mac_x86_newlib/bin/../lib/gcc/x86_64-nacl/4.4.3/../../../../x86_64-nacl/lib/../lib32/libcrt_common.a(lib_a-ctype_.o)
                0x000000000003b340                __set_ctype
 .text          0x000000000003b360      0x300 /Users/ap/SDKs/nacl/pepper_31/toolchain/mac_x86_newlib/bin/../lib/gcc/x86_64-nacl/4.4.3/../../../../x86_64-nacl/lib/../lib32/libcrt_common.a(lib_a-fclose.o)
                0x000000000003b360                _fclose_r
                0x000000000003b600                fclose
 .text          0x000000000003b660      0x3e0 /Users/ap/SDKs/nacl/pepper_31/toolchain/mac_x86_newlib/bin/../lib/gcc/x86_64-nacl/4.4.3/../../../../x86_64-nacl/lib/../lib32/libcrt_common.a(lib_a-fputwc.o)
                0x000000000003b660                _fputwc_r
                0x000000000003b980                fputwc
 .text          0x000000000003ba40       0xa0 /Users/ap/SDKs/nacl/pepper_31/toolchain/mac_x86_newlib/bin/../lib/gcc/x86_64-nacl/4.4.3/../../../../x86_64-nacl/lib/../lib32/libcrt_common.a(lib_a-fstatr.o)
                0x000000000003ba40                _fstat_r
 .text          0x000000000003bae0      0x7c0 /Users/ap/SDKs/nacl/pepper_31/toolchain/mac_x86_newlib/bin/../lib/gcc/x86_64-nacl/4.4.3/../../../../x86_64-nacl/lib/../lib32/libcrt_common.a(lib_a-fvwrite.o)
                0x000000000003bae0                __sfvwrite_r
 .text          0x000000000003c2a0       0x80 /Users/ap/SDKs/nacl/pepper_31/toolchain/mac_x86_newlib/bin/../lib/gcc/x86_64-nacl/4.4.3/../../../../x86_64-nacl/lib/../lib32/libcrt_common.a(lib_a-isattyr.o)
                0x000000000003c2a0                _isatty_r
 .text          0x000000000003c320       0xa0 /Users/ap/SDKs/nacl/pepper_31/toolchain/mac_x86_newlib/bin/../lib/gcc/x86_64-nacl/4.4.3/../../../../x86_64-nacl/lib/../lib32/libcrt_common.a(lib_a-lseekr.o)
                0x000000000003c320                _lseek_r
 .text          0x000000000003c3c0       0xa0 /Users/ap/SDKs/nacl/pepper_31/toolchain/mac_x86_newlib/bin/../lib/gcc/x86_64-nacl/4.4.3/../../../../x86_64-nacl/lib/../lib32/libcrt_common.a(lib_a-memmove.o)
                0x000000000003c3c0                memmove
 .text          0x000000000003c460       0xa0 /Users/ap/SDKs/nacl/pepper_31/toolchain/mac_x86_newlib/bin/../lib/gcc/x86_64-nacl/4.4.3/../../../../x86_64-nacl/lib/../lib32/libcrt_common.a(lib_a-readr.o)
                0x000000000003c460                _read_r
 .text          0x000000000003c500      0x3c0 /Users/ap/SDKs/nacl/pepper_31/toolchain/mac_x86_newlib/bin/../lib/gcc/x86_64-nacl/4.4.3/../../../../x86_64-nacl/lib/../lib32/libcrt_common.a(lib_a-reent.o)
                0x000000000003c500                _wrapup_reent
                0x000000000003c640                cleanup_glue
                0x000000000003c6a0                _reclaim_reent
 .text          0x000000000003c8c0      0x2a0 /Users/ap/SDKs/nacl/pepper_31/toolchain/mac_x86_newlib/bin/../lib/gcc/x86_64-nacl/4.4.3/../../../../x86_64-nacl/lib/../lib32/libcrt_common.a(lib_a-wbuf.o)
                0x000000000003c8c0                __swbuf_r
                0x000000000003cb00                __swbuf
 .text          0x000000000003cb60       0x20 /Users/ap/SDKs/nacl/pepper_31/toolchain/mac_x86_newlib/bin/../lib/gcc/x86_64-nacl/4.4.3/../../../../x86_64-nacl/lib/../lib32/libcrt_common.a(lib_a-isatty.o)
                0x000000000003cb60                isatty
 .text          0x000000000003cb80       0xa0 /Users/ap/SDKs/nacl/pepper_31/toolchain/mac_x86_newlib/bin/../lib/gcc/x86_64-nacl/4.4.3/../../../../x86_64-nacl/lib/../lib32/libcrt_common.a(lib_a-_isatty.o)
                0x000000000003cb80                _isatty
 .text          0x000000000003cc20       0xa0 /Users/ap/SDKs/nacl/pepper_31/toolchain/mac_x86_newlib/bin/../lib/gcc/x86_64-nacl/4.4.3/../../../../x86_64-nacl/lib/../lib32/libnacl.a(close.o)
                0x000000000003cc20                close
 .text          0x000000000003ccc0       0xa0 /Users/ap/SDKs/nacl/pepper_31/toolchain/mac_x86_newlib/bin/../lib/gcc/x86_64-nacl/4.4.3/../../../../x86_64-nacl/lib/../lib32/libnacl.a(fstat.o)
                0x000000000003ccc0                fstat
 .text          0x000000000003cd60       0xc0 /Users/ap/SDKs/nacl/pepper_31/toolchain/mac_x86_newlib/bin/../lib/gcc/x86_64-nacl/4.4.3/../../../../x86_64-nacl/lib/../lib32/libnacl.a(lseek.o)
                0x000000000003cd60                lseek
 .text          0x000000000003ce20       0xc0 /Users/ap/SDKs/nacl/pepper_31/toolchain/mac_x86_newlib/bin/../lib/gcc/x86_64-nacl/4.4.3/../../../../x86_64-nacl/lib/../lib32/libnacl.a(read.o)
                0x000000000003ce20                read
 .text          0x000000000003cee0      0x1e0 /Users/ap/SDKs/nacl/pepper_31/toolchain/mac_x86_newlib/bin/../lib/gcc/x86_64-nacl/4.4.3/32/libgcc.a(_udivdi3.o)
                0x000000000003cee0                __udivdi3
 .text          0x000000000003d0c0      0x240 /Users/ap/SDKs/nacl/pepper_31/toolchain/mac_x86_newlib/bin/../lib/gcc/x86_64-nacl/4.4.3/32/libgcc.a(_umoddi3.o)
                0x000000000003d0c0                __umoddi3
 .text          0x000000000003d300       0x80 /Users/ap/SDKs/nacl/pepper_31/toolchain/mac_x86_newlib/bin/../lib/gcc/x86_64-nacl/4.4.3/32/crtend.o
 .text          0x000000000003d380        0x0 /Users/ap/SDKs/nacl/pepper_31/toolchain/mac_x86_newlib/bin/../lib/gcc/x86_64-nacl/4.4.3/../../../../x86_64-nacl/lib/../lib32/crtn.o
 *(.gnu.warning)

.fini           0x000000000003d380       0x60
 *(.fini)
 .fini          0x000000000003d380       0x20 /Users/ap/SDKs/nacl/pepper_31/toolchain/mac_x86_newlib/bin/../lib/gcc/x86_64-nacl/4.4.3/../../../../x86_64-nacl/lib/../lib32/crti.o
                0x000000000003d380                _fini
 .fini          0x000000000003d3a0       0x20 /Users/ap/SDKs/nacl/pepper_31/toolchain/mac_x86_newlib/bin/../lib/gcc/x86_64-nacl/4.4.3/32/crtbegin.o
 .fini          0x000000000003d3c0       0x20 /Users/ap/SDKs/nacl/pepper_31/toolchain/mac_x86_newlib/bin/../lib/gcc/x86_64-nacl/4.4.3/../../../../x86_64-nacl/lib/../lib32/crtn.o
                0x000000000003d3e0                PROVIDE (__etext, .)
                0x000000000003d3e0                PROVIDE (_etext, .)
                0x000000000003d3e0                PROVIDE (etext, .)
                0x000000000003d400                . = (. + 0x20)
                0x0000000010020000                . = DEFINED (__nacl_rodata_after_text)?.:0x10020000
                0x0000000010020000                . = ALIGN (0x10000)

.note.gnu.build-id
                0x0000000010020000       0x24
                0x0000000010020000                PROVIDE (__note_gnu_build_id_start, .)
 *(.note.gnu.build-id)
 .note.gnu.build-id
                0x0000000010020000       0x24 /Users/ap/SDKs/nacl/pepper_31/toolchain/mac_x86_newlib/bin/../lib/gcc/x86_64-nacl/4.4.3/../../../../x86_64-nacl/lib/../lib32/crti.o
                0x0000000010020024                PROVIDE (__note_gnu_build_id_end, .)

.rodata         0x0000000010020040      0xe40
 *(.rodata .rodata.* .gnu.linkonce.r.*)
 .rodata        0x0000000010020040        0xc /Users/ap/SDKs/nacl/pepper_31/toolchain/mac_x86_newlib/bin/../lib/gcc/x86_64-nacl/4.4.3/../../../../x86_64-nacl/lib/../lib32/libppapi_stub.a(ppapi_plugin_main.o)
 .rodata.str1.4
                0x000000001002004c       0x99 /Users/ap/SDKs/nacl/pepper_31/toolchain/mac_x86_newlib/bin/../lib/gcc/x86_64-nacl/4.4.3/../../../../x86_64-nacl/lib/../lib32/libppapi_stub.a(ppapi_plugin_start.o)
 .rodata.str1.1
                0x00000000100200e5       0x17 /Users/ap/SDKs/nacl/pepper_31/toolchain/mac_x86_newlib/bin/../lib/gcc/x86_64-nacl/4.4.3/../../../../x86_64-nacl/lib/../lib32/libppapi_stub.a(ppapi_plugin_start.o)
 .rodata        0x00000000100200fc        0x8 /Users/ap/SDKs/nacl/pepper_31/toolchain/mac_x86_newlib/bin/../lib/gcc/x86_64-nacl/4.4.3/../../../../x86_64-nacl/lib/../lib32/libppapi_stub.a(thread_creator.o)
 .rodata.str1.1
                0x0000000010020104        0xc /Users/ap/SDKs/nacl/pepper_31/toolchain/mac_x86_newlib/bin/../lib/gcc/x86_64-nacl/4.4.3/../../../../x86_64-nacl/lib/../lib32/libpthread.a(nc_thread.o)
 .rodata        0x0000000010020110        0x4 /Users/ap/SDKs/nacl/pepper_31/toolchain/mac_x86_newlib/bin/../lib/gcc/x86_64-nacl/4.4.3/../../../../x86_64-nacl/lib/../lib32/libpthread.a(nc_thread.o)
                0x0000000010020110                __nc_kMaxCachedMemoryBlocks
 .rodata.str1.1
                0x0000000010020114       0x14 /Users/ap/SDKs/nacl/pepper_31/toolchain/mac_x86_newlib/bin/../lib/gcc/x86_64-nacl/4.4.3/../../../../x86_64-nacl/lib/../lib32/libpthread.a(dynamic_annotations.o)
                                         0x16 (size before relaxing)
 .rodata.str1.1
                0x0000000010020128       0x27 /Users/ap/SDKs/nacl/pepper_31/toolchain/mac_x86_newlib/bin/../lib/gcc/x86_64-nacl/4.4.3/../../../../x86_64-nacl/lib/../lib32/libpthread.a(nc_init_irt.o)
 *fill*         0x000000001002014f        0x1 00
 .rodata        0x0000000010020150        0x4 /Users/ap/SDKs/nacl/pepper_31/toolchain/mac_x86_newlib/bin/../lib/gcc/x86_64-nacl/4.4.3/../../../../x86_64-nacl/lib/../lib32/libcrt_common.a(lib_a-impure.o)
                0x0000000010020150                _global_impure_ptr
 .rodata.str1.1
                0x0000000000000000       0x27 /Users/ap/SDKs/nacl/pepper_31/toolchain/mac_x86_newlib/bin/../lib/gcc/x86_64-nacl/4.4.3/../../../../x86_64-nacl/lib/../lib32/libcrt_common.a(lib_a-impure.o)
                                          0x2 (size before relaxing)
 .rodata.str1.1
                0x0000000010020154       0x4e /Users/ap/SDKs/nacl/pepper_31/toolchain/mac_x86_newlib/bin/../lib/gcc/x86_64-nacl/4.4.3/../../../../x86_64-nacl/lib/../lib32/libnacl.a(malloc.o)
 *fill*         0x00000000100201a2        0x2 00
 .rodata.str1.4
                0x00000000100201a4       0x58 /Users/ap/SDKs/nacl/pepper_31/toolchain/mac_x86_newlib/bin/../lib/gcc/x86_64-nacl/4.4.3/../../../../x86_64-nacl/lib/../lib32/libnacl.a(nacl_irt.o)
 .rodata.str1.1
                0x00000000100201fc       0x88 /Users/ap/SDKs/nacl/pepper_31/toolchain/mac_x86_newlib/bin/../lib/gcc/x86_64-nacl/4.4.3/../../../../x86_64-nacl/lib/../lib32/libnacl.a(nacl_irt.o)
 .rodata.str1.1
                0x0000000010020284       0x39 /Users/ap/SDKs/nacl/pepper_31/toolchain/mac_x86_newlib/bin/../lib/gcc/x86_64-nacl/4.4.3/../../../../x86_64-nacl/lib/../lib32/libcrt_common.a(lib_a-vfprintf.o)
                                         0x3b (size before relaxing)
 *fill*         0x00000000100202bd        0x3 00
 .rodata        0x00000000100202c0      0x18c /Users/ap/SDKs/nacl/pepper_31/toolchain/mac_x86_newlib/bin/../lib/gcc/x86_64-nacl/4.4.3/../../../../x86_64-nacl/lib/../lib32/libcrt_common.a(lib_a-vfprintf.o)
 .rodata.cst4   0x000000001002044c        0xc /Users/ap/SDKs/nacl/pepper_31/toolchain/mac_x86_newlib/bin/../lib/gcc/x86_64-nacl/4.4.3/../../../../x86_64-nacl/lib/../lib32/libcrt_common.a(lib_a-vfprintf.o)
 .rodata.str1.1
                0x0000000010020458        0xd /Users/ap/SDKs/nacl/pepper_31/toolchain/mac_x86_newlib/bin/../lib/gcc/x86_64-nacl/4.4.3/../../../../x86_64-nacl/lib/../lib32/libcrt_common.a(lib_a-dtoa.o)
                                          0xf (size before relaxing)
 *fill*         0x0000000010020465        0x3 00
 .rodata.cst4   0x0000000010020468       0x14 /Users/ap/SDKs/nacl/pepper_31/toolchain/mac_x86_newlib/bin/../lib/gcc/x86_64-nacl/4.4.3/../../../../x86_64-nacl/lib/../lib32/libcrt_common.a(lib_a-dtoa.o)
                                         0x18 (size before relaxing)
 *fill*         0x000000001002047c        0x4 00
 .rodata.cst8   0x0000000010020480       0x18 /Users/ap/SDKs/nacl/pepper_31/toolchain/mac_x86_newlib/bin/../lib/gcc/x86_64-nacl/4.4.3/../../../../x86_64-nacl/lib/../lib32/libcrt_common.a(lib_a-dtoa.o)
 .rodata.str1.1
                0x0000000010020498       0xea /Users/ap/SDKs/nacl/pepper_31/toolchain/mac_x86_newlib/bin/../lib/gcc/x86_64-nacl/4.4.3/../../../../x86_64-nacl/lib/../lib32/libcrt_common.a(lib_a-locale.o)
                                         0xf4 (size before relaxing)
 *fill*         0x0000000010020582        0x2 00
 .rodata        0x0000000010020584       0xf0 /Users/ap/SDKs/nacl/pepper_31/toolchain/mac_x86_newlib/bin/../lib/gcc/x86_64-nacl/4.4.3/../../../../x86_64-nacl/lib/../lib32/libcrt_common.a(lib_a-locale.o)
 *fill*         0x0000000010020674        0xc 00
 .rodata        0x0000000010020680      0x260 /Users/ap/SDKs/nacl/pepper_31/toolchain/mac_x86_newlib/bin/../lib/gcc/x86_64-nacl/4.4.3/../../../../x86_64-nacl/lib/../lib32/libcrt_common.a(lib_a-mbtowc_r.o)
 .rodata        0x00000000100208e0      0x154 /Users/ap/SDKs/nacl/pepper_31/toolchain/mac_x86_newlib/bin/../lib/gcc/x86_64-nacl/4.4.3/../../../../x86_64-nacl/lib/../lib32/libcrt_common.a(lib_a-mprec.o)
                0x00000000100208e0                __mprec_tens
                0x00000000100209c0                __mprec_bigtens
                0x0000000010020a00                __mprec_tinytens
 .rodata.cst4   0x0000000000000000        0x4 /Users/ap/SDKs/nacl/pepper_31/toolchain/mac_x86_newlib/bin/../lib/gcc/x86_64-nacl/4.4.3/../../../../x86_64-nacl/lib/../lib32/libcrt_common.a(lib_a-mprec.o)
 .rodata.cst4   0x0000000010020a34        0x4 /Users/ap/SDKs/nacl/pepper_31/toolchain/mac_x86_newlib/bin/../lib/gcc/x86_64-nacl/4.4.3/../../../../x86_64-nacl/lib/../lib32/libcrt_common.a(lib_a-s_frexp.o)
 .rodata.str1.1
                0x0000000000000000       0x29 /Users/ap/SDKs/nacl/pepper_31/toolchain/mac_x86_newlib/bin/../lib/gcc/x86_64-nacl/4.4.3/../../../../x86_64-nacl/lib/../lib32/libcrt_common.a(lib_a-vfiprintf.o)
 .rodata        0x0000000010020a38      0x18c /Users/ap/SDKs/nacl/pepper_31/toolchain/mac_x86_newlib/bin/../lib/gcc/x86_64-nacl/4.4.3/../../../../x86_64-nacl/lib/../lib32/libcrt_common.a(lib_a-vfiprintf.o)
 *fill*         0x0000000010020bc4       0x1c 00
 .rodata        0x0000000010020be0      0x2a0 /Users/ap/SDKs/nacl/pepper_31/toolchain/mac_x86_newlib/bin/../lib/gcc/x86_64-nacl/4.4.3/../../../../x86_64-nacl/lib/../lib32/libcrt_common.a(lib_a-ctype_.o)
                0x0000000010020be0                _ctype_

.rodata1
 *(.rodata1)

.nacl_rpc_methods
 *(.nacl_rpc_methods)

.eh_frame_hdr   0x0000000010020e80      0x554
 *(.eh_frame_hdr)
 .eh_frame_hdr  0x0000000010020e80      0x554 /Users/ap/SDKs/nacl/pepper_31/toolchain/mac_x86_newlib/bin/../lib/gcc/x86_64-nacl/4.4.3/../../../../x86_64-nacl/lib/../lib32/libppapi_stub.a(plugin_main_irt.o)

.eh_frame       0x00000000100213d4     0x1018
 *(.eh_frame)
 .eh_frame      0x00000000100213d4        0x0 /Users/ap/SDKs/nacl/pepper_31/toolchain/mac_x86_newlib/bin/../lib/gcc/x86_64-nacl/4.4.3/32/crtbegin.o
 .eh_frame      0x00000000100213d4       0x34 /Users/ap/SDKs/nacl/pepper_31/toolchain/mac_x86_newlib/bin/../lib/gcc/x86_64-nacl/4.4.3/../../../../x86_64-nacl/lib/../lib32/libppapi_stub.a(plugin_main_irt.o)
 .eh_frame      0x0000000010021408       0x14 /Users/ap/SDKs/nacl/pepper_31/toolchain/mac_x86_newlib/bin/../lib/gcc/x86_64-nacl/4.4.3/../../../../x86_64-nacl/lib/../lib32/libppapi_stub.a(ppapi_plugin_main.o)
                                         0x2c (size before relaxing)
 .eh_frame      0x000000001002141c       0x38 /Users/ap/SDKs/nacl/pepper_31/toolchain/mac_x86_newlib/bin/../lib/gcc/x86_64-nacl/4.4.3/../../../../x86_64-nacl/lib/../lib32/libppapi_stub.a(ppapi_plugin_start.o)
                                         0x50 (size before relaxing)
 .eh_frame      0x0000000010021454       0x3c /Users/ap/SDKs/nacl/pepper_31/toolchain/mac_x86_newlib/bin/../lib/gcc/x86_64-nacl/4.4.3/../../../../x86_64-nacl/lib/../lib32/libppapi_stub.a(thread_creator.o)
                                         0x54 (size before relaxing)
 .eh_frame      0x0000000010021490      0x398 /Users/ap/SDKs/nacl/pepper_31/toolchain/mac_x86_newlib/bin/../lib/gcc/x86_64-nacl/4.4.3/../../../../x86_64-nacl/lib/../lib32/libpthread.a(nc_thread.o)
                                        0x3b0 (size before relaxing)
 .eh_frame      0x0000000010021828       0x98 /Users/ap/SDKs/nacl/pepper_31/toolchain/mac_x86_newlib/bin/../lib/gcc/x86_64-nacl/4.4.3/../../../../x86_64-nacl/lib/../lib32/libpthread.a(nc_condvar.o)
                                         0xb0 (size before relaxing)
 .eh_frame      0x00000000100218c0      0x300 /Users/ap/SDKs/nacl/pepper_31/toolchain/mac_x86_newlib/bin/../lib/gcc/x86_64-nacl/4.4.3/../../../../x86_64-nacl/lib/../lib32/libpthread.a(dynamic_annotations.o)
                                        0x318 (size before relaxing)
 .eh_frame      0x0000000010021bc0      0x128 /Users/ap/SDKs/nacl/pepper_31/toolchain/mac_x86_newlib/bin/../lib/gcc/x86_64-nacl/4.4.3/../../../../x86_64-nacl/lib/../lib32/libpthread.a(nc_mutex.o)
                                        0x140 (size before relaxing)
 .eh_frame      0x0000000010021ce8       0x3c /Users/ap/SDKs/nacl/pepper_31/toolchain/mac_x86_newlib/bin/../lib/gcc/x86_64-nacl/4.4.3/../../../../x86_64-nacl/lib/../lib32/libpthread.a(nc_init_irt.o)
                                         0x54 (size before relaxing)
 .eh_frame      0x0000000010021d24       0x14 /Users/ap/SDKs/nacl/pepper_31/toolchain/mac_x86_newlib/bin/../lib/gcc/x86_64-nacl/4.4.3/../../../../x86_64-nacl/lib/../lib32/libnacl.a(_exit.o)
                                         0x2c (size before relaxing)
 .eh_frame      0x0000000010021d38       0x20 /Users/ap/SDKs/nacl/pepper_31/toolchain/mac_x86_newlib/bin/../lib/gcc/x86_64-nacl/4.4.3/../../../../x86_64-nacl/lib/../lib32/libnacl.a(start.o)
                                         0x38 (size before relaxing)
 .eh_frame      0x0000000010021d58      0x3b0 /Users/ap/SDKs/nacl/pepper_31/toolchain/mac_x86_newlib/bin/../lib/gcc/x86_64-nacl/4.4.3/../../../../x86_64-nacl/lib/../lib32/libnacl.a(malloc.o)
                                        0x3c8 (size before relaxing)
 .eh_frame      0x0000000010022108      0x108 /Users/ap/SDKs/nacl/pepper_31/toolchain/mac_x86_newlib/bin/../lib/gcc/x86_64-nacl/4.4.3/../../../../x86_64-nacl/lib/../lib32/libnacl.a(nacl_irt.o)
                                        0x120 (size before relaxing)
 .eh_frame      0x0000000010022210       0x1c /Users/ap/SDKs/nacl/pepper_31/toolchain/mac_x86_newlib/bin/../lib/gcc/x86_64-nacl/4.4.3/../../../../x86_64-nacl/lib/../lib32/libnacl.a(pthread_initialize_minimal.o)
                                         0x34 (size before relaxing)
 .eh_frame      0x000000001002222c       0x14 /Users/ap/SDKs/nacl/pepper_31/toolchain/mac_x86_newlib/bin/../lib/gcc/x86_64-nacl/4.4.3/../../../../x86_64-nacl/lib/../lib32/libnacl.a(nacl_read_tp.o)
                                         0x2c (size before relaxing)
 .eh_frame      0x0000000010022240       0x1c /Users/ap/SDKs/nacl/pepper_31/toolchain/mac_x86_newlib/bin/../lib/gcc/x86_64-nacl/4.4.3/../../../../x86_64-nacl/lib/../lib32/libnacl.a(mmap.o)
                                         0x34 (size before relaxing)
 .eh_frame      0x000000001002225c       0x1c /Users/ap/SDKs/nacl/pepper_31/toolchain/mac_x86_newlib/bin/../lib/gcc/x86_64-nacl/4.4.3/../../../../x86_64-nacl/lib/../lib32/libnacl.a(sched_yield.o)
                                         0x34 (size before relaxing)
 .eh_frame      0x0000000010022278       0x1c /Users/ap/SDKs/nacl/pepper_31/toolchain/mac_x86_newlib/bin/../lib/gcc/x86_64-nacl/4.4.3/../../../../x86_64-nacl/lib/../lib32/libnacl.a(munmap.o)
                                         0x34 (size before relaxing)
 .eh_frame      0x0000000010022294       0x58 /Users/ap/SDKs/nacl/pepper_31/toolchain/mac_x86_newlib/bin/../lib/gcc/x86_64-nacl/4.4.3/../../../../x86_64-nacl/lib/../lib32/libnacl.a(tls.o)
                                         0x70 (size before relaxing)
 .eh_frame      0x00000000100222ec       0x1c /Users/ap/SDKs/nacl/pepper_31/toolchain/mac_x86_newlib/bin/../lib/gcc/x86_64-nacl/4.4.3/../../../../x86_64-nacl/lib/../lib32/libnacl.a(write.o)
                                         0x34 (size before relaxing)
 .eh_frame      0x0000000010022308       0x1c /Users/ap/SDKs/nacl/pepper_31/toolchain/mac_x86_newlib/bin/../lib/gcc/x86_64-nacl/4.4.3/../../../../x86_64-nacl/lib/../lib32/libnacl.a(sysconf.o)
                                         0x34 (size before relaxing)
 .eh_frame      0x0000000010022324       0x14 /Users/ap/SDKs/nacl/pepper_31/toolchain/mac_x86_newlib/bin/../lib/gcc/x86_64-nacl/4.4.3/../../../../x86_64-nacl/lib/../lib32/libnacl.a(nacl_tls_init.o)
                                         0x2c (size before relaxing)
 .eh_frame      0x0000000010022338       0x1c /Users/ap/SDKs/nacl/pepper_31/toolchain/mac_x86_newlib/bin/../lib/gcc/x86_64-nacl/4.4.3/../../../../x86_64-nacl/lib/../lib32/libnacl.a(close.o)
                                         0x34 (size before relaxing)
 .eh_frame      0x0000000010022354       0x1c /Users/ap/SDKs/nacl/pepper_31/toolchain/mac_x86_newlib/bin/../lib/gcc/x86_64-nacl/4.4.3/../../../../x86_64-nacl/lib/../lib32/libnacl.a(fstat.o)
                                         0x34 (size before relaxing)
 .eh_frame      0x0000000010022370       0x1c /Users/ap/SDKs/nacl/pepper_31/toolchain/mac_x86_newlib/bin/../lib/gcc/x86_64-nacl/4.4.3/../../../../x86_64-nacl/lib/../lib32/libnacl.a(lseek.o)
                                         0x34 (size before relaxing)
 .eh_frame      0x000000001002238c       0x1c /Users/ap/SDKs/nacl/pepper_31/toolchain/mac_x86_newlib/bin/../lib/gcc/x86_64-nacl/4.4.3/../../../../x86_64-nacl/lib/../lib32/libnacl.a(read.o)
                                         0x34 (size before relaxing)
 .eh_frame      0x00000000100223a8       0x20 /Users/ap/SDKs/nacl/pepper_31/toolchain/mac_x86_newlib/bin/../lib/gcc/x86_64-nacl/4.4.3/32/libgcc.a(_udivdi3.o)
                                         0x38 (size before relaxing)
 .eh_frame      0x00000000100223c8       0x20 /Users/ap/SDKs/nacl/pepper_31/toolchain/mac_x86_newlib/bin/../lib/gcc/x86_64-nacl/4.4.3/32/libgcc.a(_umoddi3.o)
                                         0x38 (size before relaxing)
 .eh_frame      0x00000000100223e8        0x4 /Users/ap/SDKs/nacl/pepper_31/toolchain/mac_x86_newlib/bin/../lib/gcc/x86_64-nacl/4.4.3/32/crtend.o

.gcc_except_table
 *(.gcc_except_table .gcc_except_table.*)
                0x00000000100223ec                . = (ALIGN (0x10000) - ((0x10000 - .) & 0xffff))
                0x0000000010030000                . = (0x10000 DATA_SEGMENT_ALIGN 0x10000)

.eh_frame
 *(.eh_frame)

.gcc_except_table
 *(.gcc_except_table .gcc_except_table.*)

.tdata          0x0000000010030000      0x460
                0x0000000010030000                PROVIDE (__tls_template_start, .)
 *(.tdata .tdata.* .gnu.linkonce.td.*)
 .tdata         0x0000000010030000      0x460 /Users/ap/SDKs/nacl/pepper_31/toolchain/mac_x86_newlib/bin/../lib/gcc/x86_64-nacl/4.4.3/../../../../x86_64-nacl/lib/../lib32/libcrt_common.a(lib_a-impure.o)
                0x0000000010030000                _impure_ptr
                0x0000000010030460                . = ALIGN (0x20)
                0x0000000010030460                PROVIDE (__tls_template_tdata_end, .)

.tbss           0x0000000010030460       0x20
 *(.tbss .tbss.* .gnu.linkonce.tb.*)
 .tbss          0x0000000010030460        0x8 /Users/ap/SDKs/nacl/pepper_31/toolchain/mac_x86_newlib/bin/../lib/gcc/x86_64-nacl/4.4.3/../../../../x86_64-nacl/lib/../lib32/libpthread.a(nc_thread.o)
 *(.tcommon)
                0x0000000010030480                . = ALIGN (0x20)
 *fill*         0x0000000010030468       0x18 00
                0x00000000100304a0                PROVIDE (__tls_template_end, (. + SIZEOF (.tbss)))

.preinit_array  0x0000000010030460        0x0
                0x0000000010030460                PROVIDE (__preinit_array_start, .)
 *(.preinit_array)
                0x0000000010030460                PROVIDE (__preinit_array_end, .)

.init_array     0x0000000010030460        0x0
                0x0000000010030460                PROVIDE (__init_array_start, .)
 *(SORT(.init_array.*))
 *(.init_array)
                0x0000000010030460                PROVIDE (__init_array_end, .)

.fini_array     0x0000000010030460        0x0
                0x0000000010030460                PROVIDE (__fini_array_start, .)
 *(.fini_array)
 *(SORT(.fini_array.*))
                0x0000000010030460                PROVIDE (__fini_array_end, .)

.ctors          0x0000000010030460        0x8
 *crtbegin.o(.ctors)
 .ctors         0x0000000010030460        0x4 /Users/ap/SDKs/nacl/pepper_31/toolchain/mac_x86_newlib/bin/../lib/gcc/x86_64-nacl/4.4.3/32/crtbegin.o
 *crtbegin?.o(.ctors)
 *(EXCLUDE_FILE(*crtend?.o *crtend.o) .ctors)
 *(SORT(.ctors.*))
 *(.ctors)
 .ctors         0x0000000010030464        0x4 /Users/ap/SDKs/nacl/pepper_31/toolchain/mac_x86_newlib/bin/../lib/gcc/x86_64-nacl/4.4.3/32/crtend.o

.dtors          0x0000000010030468        0x8
 *crtbegin.o(.dtors)
 .dtors         0x0000000010030468        0x4 /Users/ap/SDKs/nacl/pepper_31/toolchain/mac_x86_newlib/bin/../lib/gcc/x86_64-nacl/4.4.3/32/crtbegin.o
 *crtbegin?.o(.dtors)
 *(EXCLUDE_FILE(*crtend?.o *crtend.o) .dtors)
 *(SORT(.dtors.*))
 *(.dtors)
 .dtors         0x000000001003046c        0x4 /Users/ap/SDKs/nacl/pepper_31/toolchain/mac_x86_newlib/bin/../lib/gcc/x86_64-nacl/4.4.3/32/crtend.o
                0x000000001003046c                __DTOR_END__

.jcr            0x0000000010030470        0x4
 *(.jcr)
 .jcr           0x0000000010030470        0x0 /Users/ap/SDKs/nacl/pepper_31/toolchain/mac_x86_newlib/bin/../lib/gcc/x86_64-nacl/4.4.3/32/crtbegin.o
 .jcr           0x0000000010030470        0x4 /Users/ap/SDKs/nacl/pepper_31/toolchain/mac_x86_newlib/bin/../lib/gcc/x86_64-nacl/4.4.3/32/crtend.o

.data.rel.ro
 *(.data.rel.ro.local* .gnu.linkonce.d.rel.ro.local.*)
 *(.data.rel.ro* .gnu.linkonce.d.rel.ro.*)

.dynamic
 *(.dynamic)

.got            0x0000000010030474        0x0
 *(.got)
 .got           0x0000000000000000        0x0 /Users/ap/SDKs/nacl/pepper_31/toolchain/mac_x86_newlib/bin/../lib/gcc/x86_64-nacl/4.4.3/32/crtbegin.o
 *(.igot)
                0x0000000010030474                . = (. DATA_SEGMENT_RELRO_END 0xc)
                0x0000000010040000                . = ALIGN (0x10000)

.got.plt        0x0000000010040000        0xc
 *(.got.plt)
 .got.plt       0x0000000010040000        0xc /Users/ap/SDKs/nacl/pepper_31/toolchain/mac_x86_newlib/bin/../lib/gcc/x86_64-nacl/4.4.3/32/crtbegin.o
                0x0000000010040000                _GLOBAL_OFFSET_TABLE_
 *(.igot.plt)
 .igot.plt      0x0000000000000000        0x0 /Users/ap/SDKs/nacl/pepper_31/toolchain/mac_x86_newlib/bin/../lib/gcc/x86_64-nacl/4.4.3/32/crtbegin.o

.data           0x0000000010040020      0x6a8
 *(.data .data.* .gnu.linkonce.d.*)
 .data          0x0000000010040020        0x0 /Users/ap/SDKs/nacl/pepper_31/toolchain/mac_x86_newlib/bin/../lib/gcc/x86_64-nacl/4.4.3/../../../../x86_64-nacl/lib/../lib32/crti.o
 .data          0x0000000010040020        0x4 /Users/ap/SDKs/nacl/pepper_31/toolchain/mac_x86_newlib/bin/../lib/gcc/x86_64-nacl/4.4.3/32/crtbegin.o
                0x0000000010040020                __dso_handle
 .data          0x0000000010040024        0x0 /Users/ap/SDKs/nacl/pepper_31/toolchain/mac_x86_newlib/bin/../lib/gcc/x86_64-nacl/4.4.3/../../../../x86_64-nacl/lib/../lib32/libppapi_stub.a(plugin_main_irt.o)
 .data          0x0000000010040024        0x0 /Users/ap/SDKs/nacl/pepper_31/toolchain/mac_x86_newlib/bin/../lib/gcc/x86_64-nacl/4.4.3/../../../../x86_64-nacl/lib/../lib32/libppapi_stub.a(ppapi_plugin_main.o)
 .data          0x0000000010040024        0x0 /Users/ap/SDKs/nacl/pepper_31/toolchain/mac_x86_newlib/bin/../lib/gcc/x86_64-nacl/4.4.3/../../../../x86_64-nacl/lib/../lib32/libppapi_stub.a(ppapi_plugin_start.o)
 .data          0x0000000010040024        0x0 /Users/ap/SDKs/nacl/pepper_31/toolchain/mac_x86_newlib/bin/../lib/gcc/x86_64-nacl/4.4.3/../../../../x86_64-nacl/lib/../lib32/libppapi_stub.a(thread_creator.o)
 .data          0x0000000010040024        0x4 /Users/ap/SDKs/nacl/pepper_31/toolchain/mac_x86_newlib/bin/../lib/gcc/x86_64-nacl/4.4.3/../../../../x86_64-nacl/lib/../lib32/libpthread.a(nc_thread.o)
                0x0000000010040024                __nc_running_threads_counter
 .data          0x0000000010040028        0x0 /Users/ap/SDKs/nacl/pepper_31/toolchain/mac_x86_newlib/bin/../lib/gcc/x86_64-nacl/4.4.3/../../../../x86_64-nacl/lib/../lib32/libpthread.a(nc_condvar.o)
 .data          0x0000000010040028        0x4 /Users/ap/SDKs/nacl/pepper_31/toolchain/mac_x86_newlib/bin/../lib/gcc/x86_64-nacl/4.4.3/../../../../x86_64-nacl/lib/../lib32/libpthread.a(dynamic_annotations.o)
 .data          0x000000001004002c        0x0 /Users/ap/SDKs/nacl/pepper_31/toolchain/mac_x86_newlib/bin/../lib/gcc/x86_64-nacl/4.4.3/../../../../x86_64-nacl/lib/../lib32/libpthread.a(nc_mutex.o)
 .data          0x000000001004002c        0x0 /Users/ap/SDKs/nacl/pepper_31/toolchain/mac_x86_newlib/bin/../lib/gcc/x86_64-nacl/4.4.3/../../../../x86_64-nacl/lib/../lib32/libpthread.a(nc_init_irt.o)
 .data          0x000000001004002c        0x4 /Users/ap/SDKs/nacl/pepper_31/toolchain/mac_x86_newlib/bin/../lib/gcc/x86_64-nacl/4.4.3/../../../../x86_64-nacl/lib/../lib32/libcrt_common.a(lib_a-environ.o)
                0x000000001004002c                environ
 .data          0x0000000010040030        0x0 /Users/ap/SDKs/nacl/pepper_31/toolchain/mac_x86_newlib/bin/../lib/gcc/x86_64-nacl/4.4.3/../../../../x86_64-nacl/lib/../lib32/libcrt_common.a(lib_a-exit.o)
 .data          0x0000000010040030        0x0 /Users/ap/SDKs/nacl/pepper_31/toolchain/mac_x86_newlib/bin/../lib/gcc/x86_64-nacl/4.4.3/../../../../x86_64-nacl/lib/../lib32/libcrt_common.a(lib_a-getenv.o)
 .data          0x0000000010040030        0x0 /Users/ap/SDKs/nacl/pepper_31/toolchain/mac_x86_newlib/bin/../lib/gcc/x86_64-nacl/4.4.3/../../../../x86_64-nacl/lib/../lib32/libcrt_common.a(lib_a-getenv_r.o)
 *fill*         0x0000000010040030       0x10 00
 .data          0x0000000010040040      0x458 /Users/ap/SDKs/nacl/pepper_31/toolchain/mac_x86_newlib/bin/../lib/gcc/x86_64-nacl/4.4.3/../../../../x86_64-nacl/lib/../lib32/libcrt_common.a(lib_a-impure.o)
 .data          0x0000000010040498        0x0 /Users/ap/SDKs/nacl/pepper_31/toolchain/mac_x86_newlib/bin/../lib/gcc/x86_64-nacl/4.4.3/../../../../x86_64-nacl/lib/../lib32/libcrt_common.a(lib_a-strlen.o)
 .data          0x0000000010040498        0x0 /Users/ap/SDKs/nacl/pepper_31/toolchain/mac_x86_newlib/bin/../lib/gcc/x86_64-nacl/4.4.3/../../../../x86_64-nacl/lib/../lib32/libcrt_common.a(lib_a-strncmp.o)
 .data          0x0000000010040498        0x0 /Users/ap/SDKs/nacl/pepper_31/toolchain/mac_x86_newlib/bin/../lib/gcc/x86_64-nacl/4.4.3/../../../../x86_64-nacl/lib/../lib32/libcrt_common.a(lib_a-__call_atexit.o)
 .data          0x0000000010040498       0x14 /Users/ap/SDKs/nacl/pepper_31/toolchain/mac_x86_newlib/bin/../lib/gcc/x86_64-nacl/4.4.3/../../../../x86_64-nacl/lib/../lib32/libcrt_common.a(lib_a-envlock.o)
 .data          0x00000000100404ac       0x14 /Users/ap/SDKs/nacl/pepper_31/toolchain/mac_x86_newlib/bin/../lib/gcc/x86_64-nacl/4.4.3/../../../../x86_64-nacl/lib/../lib32/libcrt_common.a(lib_a-__atexit.o)
                0x00000000100404ac                __atexit_lock
 .data          0x00000000100404c0        0x0 /Users/ap/SDKs/nacl/pepper_31/toolchain/mac_x86_newlib/bin/../lib/gcc/x86_64-nacl/4.4.3/../../../../x86_64-nacl/lib/../lib32/libnacl.a(_exit.o)
 .data          0x00000000100404c0        0x0 /Users/ap/SDKs/nacl/pepper_31/toolchain/mac_x86_newlib/bin/../lib/gcc/x86_64-nacl/4.4.3/../../../../x86_64-nacl/lib/../lib32/libnacl.a(start.o)
 .data          0x00000000100404c0        0x0 /Users/ap/SDKs/nacl/pepper_31/toolchain/mac_x86_newlib/bin/../lib/gcc/x86_64-nacl/4.4.3/../../../../x86_64-nacl/lib/../lib32/libnacl.a(malloc.o)
 .data          0x00000000100404c0       0x20 /Users/ap/SDKs/nacl/pepper_31/toolchain/mac_x86_newlib/bin/../lib/gcc/x86_64-nacl/4.4.3/../../../../x86_64-nacl/lib/../lib32/libnacl.a(nacl_irt.o)
                0x00000000100404c0                __libnacl_irt_fdio
 .data          0x00000000100404e0        0x0 /Users/ap/SDKs/nacl/pepper_31/toolchain/mac_x86_newlib/bin/../lib/gcc/x86_64-nacl/4.4.3/../../../../x86_64-nacl/lib/../lib32/libnacl.a(pthread_initialize_minimal.o)
 .data          0x00000000100404e0        0x0 /Users/ap/SDKs/nacl/pepper_31/toolchain/mac_x86_newlib/bin/../lib/gcc/x86_64-nacl/4.4.3/../../../../x86_64-nacl/lib/../lib32/libnacl.a(nacl_read_tp.o)
 .data          0x00000000100404e0        0x0 /Users/ap/SDKs/nacl/pepper_31/toolchain/mac_x86_newlib/bin/../lib/gcc/x86_64-nacl/4.4.3/../../../../x86_64-nacl/lib/../lib32/libnacl.a(mmap.o)
 .data          0x00000000100404e0        0x0 /Users/ap/SDKs/nacl/pepper_31/toolchain/mac_x86_newlib/bin/../lib/gcc/x86_64-nacl/4.4.3/../../../../x86_64-nacl/lib/../lib32/libnacl.a(sched_yield.o)
 .data          0x00000000100404e0        0x0 /Users/ap/SDKs/nacl/pepper_31/toolchain/mac_x86_newlib/bin/../lib/gcc/x86_64-nacl/4.4.3/../../../../x86_64-nacl/lib/../lib32/libnacl.a(munmap.o)
 .data          0x00000000100404e0        0x0 /Users/ap/SDKs/nacl/pepper_31/toolchain/mac_x86_newlib/bin/../lib/gcc/x86_64-nacl/4.4.3/../../../../x86_64-nacl/lib/../lib32/libnacl.a(tls.o)
 .data          0x00000000100404e0        0x0 /Users/ap/SDKs/nacl/pepper_31/toolchain/mac_x86_newlib/bin/../lib/gcc/x86_64-nacl/4.4.3/../../../../x86_64-nacl/lib/../lib32/libnacl.a(write.o)
 .data          0x00000000100404e0        0x0 /Users/ap/SDKs/nacl/pepper_31/toolchain/mac_x86_newlib/bin/../lib/gcc/x86_64-nacl/4.4.3/../../../../x86_64-nacl/lib/../lib32/libnacl.a(sysconf.o)
 .data          0x00000000100404e0        0x0 /Users/ap/SDKs/nacl/pepper_31/toolchain/mac_x86_newlib/bin/../lib/gcc/x86_64-nacl/4.4.3/../../../../x86_64-nacl/lib/../lib32/libnacl.a(nacl_tls_init.o)
 .data          0x00000000100404e0        0x0 /Users/ap/SDKs/nacl/pepper_31/toolchain/mac_x86_newlib/bin/../lib/gcc/x86_64-nacl/4.4.3/../../../../x86_64-nacl/lib/../lib32/libcrt_common.a(lib_a-abort.o)
 .data          0x00000000100404e0        0x0 /Users/ap/SDKs/nacl/pepper_31/toolchain/mac_x86_newlib/bin/../lib/gcc/x86_64-nacl/4.4.3/../../../../x86_64-nacl/lib/../lib32/libcrt_common.a(lib_a-atexit.o)
 .data          0x00000000100404e0        0x0 /Users/ap/SDKs/nacl/pepper_31/toolchain/mac_x86_newlib/bin/../lib/gcc/x86_64-nacl/4.4.3/../../../../x86_64-nacl/lib/../lib32/libcrt_common.a(lib_a-errno.o)
 .data          0x00000000100404e0        0x0 /Users/ap/SDKs/nacl/pepper_31/toolchain/mac_x86_newlib/bin/../lib/gcc/x86_64-nacl/4.4.3/../../../../x86_64-nacl/lib/../lib32/libcrt_common.a(lib_a-fini.o)
 .data          0x00000000100404e0        0x0 /Users/ap/SDKs/nacl/pepper_31/toolchain/mac_x86_newlib/bin/../lib/gcc/x86_64-nacl/4.4.3/../../../../x86_64-nacl/lib/../lib32/libcrt_common.a(lib_a-fprintf.o)
 .data          0x00000000100404e0        0x0 /Users/ap/SDKs/nacl/pepper_31/toolchain/mac_x86_newlib/bin/../lib/gcc/x86_64-nacl/4.4.3/../../../../x86_64-nacl/lib/../lib32/libcrt_common.a(lib_a-init.o)
 .data          0x00000000100404e0        0x0 /Users/ap/SDKs/nacl/pepper_31/toolchain/mac_x86_newlib/bin/../lib/gcc/x86_64-nacl/4.4.3/../../../../x86_64-nacl/lib/../lib32/libcrt_common.a(lib_a-memcpy.o)
 .data          0x00000000100404e0        0x0 /Users/ap/SDKs/nacl/pepper_31/toolchain/mac_x86_newlib/bin/../lib/gcc/x86_64-nacl/4.4.3/../../../../x86_64-nacl/lib/../lib32/libcrt_common.a(lib_a-memset.o)
 .data          0x00000000100404e0        0x0 /Users/ap/SDKs/nacl/pepper_31/toolchain/mac_x86_newlib/bin/../lib/gcc/x86_64-nacl/4.4.3/../../../../x86_64-nacl/lib/../lib32/libcrt_common.a(lib_a-vfprintf.o)
 .data          0x00000000100404e0        0x0 /Users/ap/SDKs/nacl/pepper_31/toolchain/mac_x86_newlib/bin/../lib/gcc/x86_64-nacl/4.4.3/../../../../x86_64-nacl/lib/../lib32/libcrt_common.a(lib_a-wcrtomb.o)
 .data          0x00000000100404e0        0x0 /Users/ap/SDKs/nacl/pepper_31/toolchain/mac_x86_newlib/bin/../lib/gcc/x86_64-nacl/4.4.3/../../../../x86_64-nacl/lib/../lib32/libcrt_common.a(lib_a-wcsrtombs.o)
 .data          0x00000000100404e0        0x4 /Users/ap/SDKs/nacl/pepper_31/toolchain/mac_x86_newlib/bin/../lib/gcc/x86_64-nacl/4.4.3/../../../../x86_64-nacl/lib/../lib32/libcrt_common.a(lib_a-wctomb_r.o)
                0x00000000100404e0                __wctomb
 .data          0x00000000100404e4        0x0 /Users/ap/SDKs/nacl/pepper_31/toolchain/mac_x86_newlib/bin/../lib/gcc/x86_64-nacl/4.4.3/../../../../x86_64-nacl/lib/../lib32/libcrt_common.a(lib_a-wsetup.o)
 .data          0x00000000100404e4        0x0 /Users/ap/SDKs/nacl/pepper_31/toolchain/mac_x86_newlib/bin/../lib/gcc/x86_64-nacl/4.4.3/../../../../x86_64-nacl/lib/../lib32/libcrt_common.a(lib_a-dtoa.o)
 .data          0x00000000100404e4        0x0 /Users/ap/SDKs/nacl/pepper_31/toolchain/mac_x86_newlib/bin/../lib/gcc/x86_64-nacl/4.4.3/../../../../x86_64-nacl/lib/../lib32/libcrt_common.a(lib_a-fflush.o)
 .data          0x00000000100404e4       0x28 /Users/ap/SDKs/nacl/pepper_31/toolchain/mac_x86_newlib/bin/../lib/gcc/x86_64-nacl/4.4.3/../../../../x86_64-nacl/lib/../lib32/libcrt_common.a(lib_a-findfp.o)
 .data          0x000000001004050c        0x0 /Users/ap/SDKs/nacl/pepper_31/toolchain/mac_x86_newlib/bin/../lib/gcc/x86_64-nacl/4.4.3/../../../../x86_64-nacl/lib/../lib32/libcrt_common.a(lib_a-fwalk.o)
 *fill*         0x000000001004050c       0x14 00
 .data          0x0000000010040520      0x1a0 /Users/ap/SDKs/nacl/pepper_31/toolchain/mac_x86_newlib/bin/../lib/gcc/x86_64-nacl/4.4.3/../../../../x86_64-nacl/lib/../lib32/libcrt_common.a(lib_a-locale.o)
                0x0000000010040520                __mb_cur_max
                0x0000000010040540                __default_locale
 .data          0x00000000100406c0        0x0 /Users/ap/SDKs/nacl/pepper_31/toolchain/mac_x86_newlib/bin/../lib/gcc/x86_64-nacl/4.4.3/../../../../x86_64-nacl/lib/../lib32/libcrt_common.a(lib_a-makebuf.o)
 .data          0x00000000100406c0        0x4 /Users/ap/SDKs/nacl/pepper_31/toolchain/mac_x86_newlib/bin/../lib/gcc/x86_64-nacl/4.4.3/../../../../x86_64-nacl/lib/../lib32/libcrt_common.a(lib_a-mbtowc_r.o)
                0x00000000100406c0                __mbtowc
 .data          0x00000000100406c4        0x0 /Users/ap/SDKs/nacl/pepper_31/toolchain/mac_x86_newlib/bin/../lib/gcc/x86_64-nacl/4.4.3/../../../../x86_64-nacl/lib/../lib32/libcrt_common.a(lib_a-memchr.o)
 .data          0x00000000100406c4        0x0 /Users/ap/SDKs/nacl/pepper_31/toolchain/mac_x86_newlib/bin/../lib/gcc/x86_64-nacl/4.4.3/../../../../x86_64-nacl/lib/../lib32/libcrt_common.a(lib_a-mprec.o)
 .data          0x00000000100406c4        0x0 /Users/ap/SDKs/nacl/pepper_31/toolchain/mac_x86_newlib/bin/../lib/gcc/x86_64-nacl/4.4.3/../../../../x86_64-nacl/lib/../lib32/libcrt_common.a(lib_a-s_fpclassify.o)
 .data          0x00000000100406c4        0x0 /Users/ap/SDKs/nacl/pepper_31/toolchain/mac_x86_newlib/bin/../lib/gcc/x86_64-nacl/4.4.3/../../../../x86_64-nacl/lib/../lib32/libcrt_common.a(lib_a-s_frexp.o)
 .data          0x00000000100406c4        0x0 /Users/ap/SDKs/nacl/pepper_31/toolchain/mac_x86_newlib/bin/../lib/gcc/x86_64-nacl/4.4.3/../../../../x86_64-nacl/lib/../lib32/libcrt_common.a(lib_a-stdio.o)
 .data          0x00000000100406c4        0x0 /Users/ap/SDKs/nacl/pepper_31/toolchain/mac_x86_newlib/bin/../lib/gcc/x86_64-nacl/4.4.3/../../../../x86_64-nacl/lib/../lib32/libcrt_common.a(lib_a-strcasecmp.o)
 .data          0x00000000100406c4        0x0 /Users/ap/SDKs/nacl/pepper_31/toolchain/mac_x86_newlib/bin/../lib/gcc/x86_64-nacl/4.4.3/../../../../x86_64-nacl/lib/../lib32/libcrt_common.a(lib_a-strcat.o)
 .data          0x00000000100406c4        0x0 /Users/ap/SDKs/nacl/pepper_31/toolchain/mac_x86_newlib/bin/../lib/gcc/x86_64-nacl/4.4.3/../../../../x86_64-nacl/lib/../lib32/libcrt_common.a(lib_a-strchr.o)
 .data          0x00000000100406c4        0x0 /Users/ap/SDKs/nacl/pepper_31/toolchain/mac_x86_newlib/bin/../lib/gcc/x86_64-nacl/4.4.3/../../../../x86_64-nacl/lib/../lib32/libcrt_common.a(lib_a-strcmp.o)
 .data          0x00000000100406c4        0x0 /Users/ap/SDKs/nacl/pepper_31/toolchain/mac_x86_newlib/bin/../lib/gcc/x86_64-nacl/4.4.3/../../../../x86_64-nacl/lib/../lib32/libcrt_common.a(lib_a-strcpy.o)
 .data          0x00000000100406c4        0x0 /Users/ap/SDKs/nacl/pepper_31/toolchain/mac_x86_newlib/bin/../lib/gcc/x86_64-nacl/4.4.3/../../../../x86_64-nacl/lib/../lib32/libcrt_common.a(lib_a-strlcpy.o)
 .data          0x00000000100406c4        0x0 /Users/ap/SDKs/nacl/pepper_31/toolchain/mac_x86_newlib/bin/../lib/gcc/x86_64-nacl/4.4.3/../../../../x86_64-nacl/lib/../lib32/libcrt_common.a(lib_a-strncasecmp.o)
 .data          0x00000000100406c4        0x0 /Users/ap/SDKs/nacl/pepper_31/toolchain/mac_x86_newlib/bin/../lib/gcc/x86_64-nacl/4.4.3/../../../../x86_64-nacl/lib/../lib32/libcrt_common.a(lib_a-strncpy.o)
 .data          0x00000000100406c4        0x0 /Users/ap/SDKs/nacl/pepper_31/toolchain/mac_x86_newlib/bin/../lib/gcc/x86_64-nacl/4.4.3/../../../../x86_64-nacl/lib/../lib32/libcrt_common.a(lib_a-strtol.o)
 .data          0x00000000100406c4        0x0 /Users/ap/SDKs/nacl/pepper_31/toolchain/mac_x86_newlib/bin/../lib/gcc/x86_64-nacl/4.4.3/../../../../x86_64-nacl/lib/../lib32/libcrt_common.a(lib_a-vfiprintf.o)
 .data          0x00000000100406c4        0x0 /Users/ap/SDKs/nacl/pepper_31/toolchain/mac_x86_newlib/bin/../lib/gcc/x86_64-nacl/4.4.3/../../../../x86_64-nacl/lib/../lib32/libcrt_common.a(lib_a-wcsnrtombs.o)
 .data          0x00000000100406c4        0x0 /Users/ap/SDKs/nacl/pepper_31/toolchain/mac_x86_newlib/bin/../lib/gcc/x86_64-nacl/4.4.3/../../../../x86_64-nacl/lib/../lib32/libcrt_common.a(lib_a-writer.o)
 .data          0x00000000100406c4        0x0 /Users/ap/SDKs/nacl/pepper_31/toolchain/mac_x86_newlib/bin/../lib/gcc/x86_64-nacl/4.4.3/../../../../x86_64-nacl/lib/../lib32/libcrt_common.a(lib_a-closer.o)
 .data          0x00000000100406c4        0x4 /Users/ap/SDKs/nacl/pepper_31/toolchain/mac_x86_newlib/bin/../lib/gcc/x86_64-nacl/4.4.3/../../../../x86_64-nacl/lib/../lib32/libcrt_common.a(lib_a-ctype_.o)
                0x00000000100406c4                __ctype_ptr__
 .data          0x00000000100406c8        0x0 /Users/ap/SDKs/nacl/pepper_31/toolchain/mac_x86_newlib/bin/../lib/gcc/x86_64-nacl/4.4.3/../../../../x86_64-nacl/lib/../lib32/libcrt_common.a(lib_a-fclose.o)
 .data          0x00000000100406c8        0x0 /Users/ap/SDKs/nacl/pepper_31/toolchain/mac_x86_newlib/bin/../lib/gcc/x86_64-nacl/4.4.3/../../../../x86_64-nacl/lib/../lib32/libcrt_common.a(lib_a-fputwc.o)
 .data          0x00000000100406c8        0x0 /Users/ap/SDKs/nacl/pepper_31/toolchain/mac_x86_newlib/bin/../lib/gcc/x86_64-nacl/4.4.3/../../../../x86_64-nacl/lib/../lib32/libcrt_common.a(lib_a-fstatr.o)
 .data          0x00000000100406c8        0x0 /Users/ap/SDKs/nacl/pepper_31/toolchain/mac_x86_newlib/bin/../lib/gcc/x86_64-nacl/4.4.3/../../../../x86_64-nacl/lib/../lib32/libcrt_common.a(lib_a-fvwrite.o)
 .data          0x00000000100406c8        0x0 /Users/ap/SDKs/nacl/pepper_31/toolchain/mac_x86_newlib/bin/../lib/gcc/x86_64-nacl/4.4.3/../../../../x86_64-nacl/lib/../lib32/libcrt_common.a(lib_a-isattyr.o)
 .data          0x00000000100406c8        0x0 /Users/ap/SDKs/nacl/pepper_31/toolchain/mac_x86_newlib/bin/../lib/gcc/x86_64-nacl/4.4.3/../../../../x86_64-nacl/lib/../lib32/libcrt_common.a(lib_a-lseekr.o)
 .data          0x00000000100406c8        0x0 /Users/ap/SDKs/nacl/pepper_31/toolchain/mac_x86_newlib/bin/../lib/gcc/x86_64-nacl/4.4.3/../../../../x86_64-nacl/lib/../lib32/libcrt_common.a(lib_a-memmove.o)
 .data          0x00000000100406c8        0x0 /Users/ap/SDKs/nacl/pepper_31/toolchain/mac_x86_newlib/bin/../lib/gcc/x86_64-nacl/4.4.3/../../../../x86_64-nacl/lib/../lib32/libcrt_common.a(lib_a-readr.o)
 .data          0x00000000100406c8        0x0 /Users/ap/SDKs/nacl/pepper_31/toolchain/mac_x86_newlib/bin/../lib/gcc/x86_64-nacl/4.4.3/../../../../x86_64-nacl/lib/../lib32/libcrt_common.a(lib_a-reent.o)
 .data          0x00000000100406c8        0x0 /Users/ap/SDKs/nacl/pepper_31/toolchain/mac_x86_newlib/bin/../lib/gcc/x86_64-nacl/4.4.3/../../../../x86_64-nacl/lib/../lib32/libcrt_common.a(lib_a-wbuf.o)
 .data          0x00000000100406c8        0x0 /Users/ap/SDKs/nacl/pepper_31/toolchain/mac_x86_newlib/bin/../lib/gcc/x86_64-nacl/4.4.3/../../../../x86_64-nacl/lib/../lib32/libcrt_common.a(lib_a-isatty.o)
 .data          0x00000000100406c8        0x0 /Users/ap/SDKs/nacl/pepper_31/toolchain/mac_x86_newlib/bin/../lib/gcc/x86_64-nacl/4.4.3/../../../../x86_64-nacl/lib/../lib32/libcrt_common.a(lib_a-_isatty.o)
 .data          0x00000000100406c8        0x0 /Users/ap/SDKs/nacl/pepper_31/toolchain/mac_x86_newlib/bin/../lib/gcc/x86_64-nacl/4.4.3/../../../../x86_64-nacl/lib/../lib32/libnacl.a(close.o)
 .data          0x00000000100406c8        0x0 /Users/ap/SDKs/nacl/pepper_31/toolchain/mac_x86_newlib/bin/../lib/gcc/x86_64-nacl/4.4.3/../../../../x86_64-nacl/lib/../lib32/libnacl.a(fstat.o)
 .data          0x00000000100406c8        0x0 /Users/ap/SDKs/nacl/pepper_31/toolchain/mac_x86_newlib/bin/../lib/gcc/x86_64-nacl/4.4.3/../../../../x86_64-nacl/lib/../lib32/libnacl.a(lseek.o)
 .data          0x00000000100406c8        0x0 /Users/ap/SDKs/nacl/pepper_31/toolchain/mac_x86_newlib/bin/../lib/gcc/x86_64-nacl/4.4.3/../../../../x86_64-nacl/lib/../lib32/libnacl.a(read.o)
 .data          0x00000000100406c8        0x0 /Users/ap/SDKs/nacl/pepper_31/toolchain/mac_x86_newlib/bin/../lib/gcc/x86_64-nacl/4.4.3/32/libgcc.a(_udivdi3.o)
 .data          0x00000000100406c8        0x0 /Users/ap/SDKs/nacl/pepper_31/toolchain/mac_x86_newlib/bin/../lib/gcc/x86_64-nacl/4.4.3/32/libgcc.a(_umoddi3.o)
 .data          0x00000000100406c8        0x0 /Users/ap/SDKs/nacl/pepper_31/toolchain/mac_x86_newlib/bin/../lib/gcc/x86_64-nacl/4.4.3/32/crtend.o
 .data          0x00000000100406c8        0x0 /Users/ap/SDKs/nacl/pepper_31/toolchain/mac_x86_newlib/bin/../lib/gcc/x86_64-nacl/4.4.3/../../../../x86_64-nacl/lib/../lib32/crtn.o

.data1
 *(.data1)
                0x00000000100406c8                _edata = .
                0x00000000100406c8                PROVIDE (edata, .)
                0x00000000100406c8                __bss_start = .

.bss            0x00000000100406e0     0x15e4
 *(.dynbss)
 *(.bss .bss.* .gnu.linkonce.b.*)
 .bss           0x00000000100406e0        0x0 /Users/ap/SDKs/nacl/pepper_31/toolchain/mac_x86_newlib/bin/../lib/gcc/x86_64-nacl/4.4.3/../../../../x86_64-nacl/lib/../lib32/crti.o
 .bss           0x00000000100406e0       0x20 /Users/ap/SDKs/nacl/pepper_31/toolchain/mac_x86_newlib/bin/../lib/gcc/x86_64-nacl/4.4.3/32/crtbegin.o
 .bss           0x0000000010040700        0x0 /Users/ap/SDKs/nacl/pepper_31/toolchain/mac_x86_newlib/bin/../lib/gcc/x86_64-nacl/4.4.3/../../../../x86_64-nacl/lib/../lib32/libppapi_stub.a(plugin_main_irt.o)
 .bss           0x0000000010040700        0x0 /Users/ap/SDKs/nacl/pepper_31/toolchain/mac_x86_newlib/bin/../lib/gcc/x86_64-nacl/4.4.3/../../../../x86_64-nacl/lib/../lib32/libppapi_stub.a(ppapi_plugin_main.o)
 .bss           0x0000000010040700        0x0 /Users/ap/SDKs/nacl/pepper_31/toolchain/mac_x86_newlib/bin/../lib/gcc/x86_64-nacl/4.4.3/../../../../x86_64-nacl/lib/../lib32/libppapi_stub.a(ppapi_plugin_start.o)
 .bss           0x0000000010040700        0x0 /Users/ap/SDKs/nacl/pepper_31/toolchain/mac_x86_newlib/bin/../lib/gcc/x86_64-nacl/4.4.3/../../../../x86_64-nacl/lib/../lib32/libppapi_stub.a(thread_creator.o)
 .bss           0x0000000010040700     0x1020 /Users/ap/SDKs/nacl/pepper_31/toolchain/mac_x86_newlib/bin/../lib/gcc/x86_64-nacl/4.4.3/../../../../x86_64-nacl/lib/../lib32/libpthread.a(nc_thread.o)
 .bss           0x0000000010041720        0x0 /Users/ap/SDKs/nacl/pepper_31/toolchain/mac_x86_newlib/bin/../lib/gcc/x86_64-nacl/4.4.3/../../../../x86_64-nacl/lib/../lib32/libpthread.a(nc_condvar.o)
 .bss           0x0000000010041720        0x0 /Users/ap/SDKs/nacl/pepper_31/toolchain/mac_x86_newlib/bin/../lib/gcc/x86_64-nacl/4.4.3/../../../../x86_64-nacl/lib/../lib32/libpthread.a(dynamic_annotations.o)
 .bss           0x0000000010041720        0x0 /Users/ap/SDKs/nacl/pepper_31/toolchain/mac_x86_newlib/bin/../lib/gcc/x86_64-nacl/4.4.3/../../../../x86_64-nacl/lib/../lib32/libpthread.a(nc_mutex.o)
 .bss           0x0000000010041720        0x0 /Users/ap/SDKs/nacl/pepper_31/toolchain/mac_x86_newlib/bin/../lib/gcc/x86_64-nacl/4.4.3/../../../../x86_64-nacl/lib/../lib32/libpthread.a(nc_init_irt.o)
 .bss           0x0000000010041720        0x4 /Users/ap/SDKs/nacl/pepper_31/toolchain/mac_x86_newlib/bin/../lib/gcc/x86_64-nacl/4.4.3/../../../../x86_64-nacl/lib/../lib32/libcrt_common.a(lib_a-environ.o)
 .bss           0x0000000010041724        0x0 /Users/ap/SDKs/nacl/pepper_31/toolchain/mac_x86_newlib/bin/../lib/gcc/x86_64-nacl/4.4.3/../../../../x86_64-nacl/lib/../lib32/libcrt_common.a(lib_a-exit.o)
 .bss           0x0000000010041724        0x0 /Users/ap/SDKs/nacl/pepper_31/toolchain/mac_x86_newlib/bin/../lib/gcc/x86_64-nacl/4.4.3/../../../../x86_64-nacl/lib/../lib32/libcrt_common.a(lib_a-getenv.o)
 .bss           0x0000000010041724        0x0 /Users/ap/SDKs/nacl/pepper_31/toolchain/mac_x86_newlib/bin/../lib/gcc/x86_64-nacl/4.4.3/../../../../x86_64-nacl/lib/../lib32/libcrt_common.a(lib_a-getenv_r.o)
 .bss           0x0000000010041724        0x0 /Users/ap/SDKs/nacl/pepper_31/toolchain/mac_x86_newlib/bin/../lib/gcc/x86_64-nacl/4.4.3/../../../../x86_64-nacl/lib/../lib32/libcrt_common.a(lib_a-impure.o)
 .bss           0x0000000010041724        0x0 /Users/ap/SDKs/nacl/pepper_31/toolchain/mac_x86_newlib/bin/../lib/gcc/x86_64-nacl/4.4.3/../../../../x86_64-nacl/lib/../lib32/libcrt_common.a(lib_a-strlen.o)
 .bss           0x0000000010041724        0x0 /Users/ap/SDKs/nacl/pepper_31/toolchain/mac_x86_newlib/bin/../lib/gcc/x86_64-nacl/4.4.3/../../../../x86_64-nacl/lib/../lib32/libcrt_common.a(lib_a-strncmp.o)
 .bss           0x0000000010041724        0x0 /Users/ap/SDKs/nacl/pepper_31/toolchain/mac_x86_newlib/bin/../lib/gcc/x86_64-nacl/4.4.3/../../../../x86_64-nacl/lib/../lib32/libcrt_common.a(lib_a-__call_atexit.o)
 .bss           0x0000000010041724        0x0 /Users/ap/SDKs/nacl/pepper_31/toolchain/mac_x86_newlib/bin/../lib/gcc/x86_64-nacl/4.4.3/../../../../x86_64-nacl/lib/../lib32/libcrt_common.a(lib_a-envlock.o)
 .bss           0x0000000010041724        0x0 /Users/ap/SDKs/nacl/pepper_31/toolchain/mac_x86_newlib/bin/../lib/gcc/x86_64-nacl/4.4.3/../../../../x86_64-nacl/lib/../lib32/libcrt_common.a(lib_a-__atexit.o)
 .bss           0x0000000010041724        0x0 /Users/ap/SDKs/nacl/pepper_31/toolchain/mac_x86_newlib/bin/../lib/gcc/x86_64-nacl/4.4.3/../../../../x86_64-nacl/lib/../lib32/libnacl.a(_exit.o)
 .bss           0x0000000010041724        0x0 /Users/ap/SDKs/nacl/pepper_31/toolchain/mac_x86_newlib/bin/../lib/gcc/x86_64-nacl/4.4.3/../../../../x86_64-nacl/lib/../lib32/libnacl.a(start.o)
 *fill*         0x0000000010041724       0x1c 00
 .bss           0x0000000010041740      0x1fc /Users/ap/SDKs/nacl/pepper_31/toolchain/mac_x86_newlib/bin/../lib/gcc/x86_64-nacl/4.4.3/../../../../x86_64-nacl/lib/../lib32/libnacl.a(malloc.o)
 .bss           0x000000001004193c        0x0 /Users/ap/SDKs/nacl/pepper_31/toolchain/mac_x86_newlib/bin/../lib/gcc/x86_64-nacl/4.4.3/../../../../x86_64-nacl/lib/../lib32/libnacl.a(nacl_irt.o)
 .bss           0x000000001004193c        0x0 /Users/ap/SDKs/nacl/pepper_31/toolchain/mac_x86_newlib/bin/../lib/gcc/x86_64-nacl/4.4.3/../../../../x86_64-nacl/lib/../lib32/libnacl.a(pthread_initialize_minimal.o)
 .bss           0x000000001004193c        0x0 /Users/ap/SDKs/nacl/pepper_31/toolchain/mac_x86_newlib/bin/../lib/gcc/x86_64-nacl/4.4.3/../../../../x86_64-nacl/lib/../lib32/libnacl.a(nacl_read_tp.o)
 .bss           0x000000001004193c        0x0 /Users/ap/SDKs/nacl/pepper_31/toolchain/mac_x86_newlib/bin/../lib/gcc/x86_64-nacl/4.4.3/../../../../x86_64-nacl/lib/../lib32/libnacl.a(mmap.o)
 .bss           0x000000001004193c        0x0 /Users/ap/SDKs/nacl/pepper_31/toolchain/mac_x86_newlib/bin/../lib/gcc/x86_64-nacl/4.4.3/../../../../x86_64-nacl/lib/../lib32/libnacl.a(sched_yield.o)
 .bss           0x000000001004193c        0x0 /Users/ap/SDKs/nacl/pepper_31/toolchain/mac_x86_newlib/bin/../lib/gcc/x86_64-nacl/4.4.3/../../../../x86_64-nacl/lib/../lib32/libnacl.a(munmap.o)
 .bss           0x000000001004193c       0x10 /Users/ap/SDKs/nacl/pepper_31/toolchain/mac_x86_newlib/bin/../lib/gcc/x86_64-nacl/4.4.3/../../../../x86_64-nacl/lib/../lib32/libnacl.a(tls.o)
 .bss           0x000000001004194c        0x0 /Users/ap/SDKs/nacl/pepper_31/toolchain/mac_x86_newlib/bin/../lib/gcc/x86_64-nacl/4.4.3/../../../../x86_64-nacl/lib/../lib32/libnacl.a(write.o)
 .bss           0x000000001004194c        0x0 /Users/ap/SDKs/nacl/pepper_31/toolchain/mac_x86_newlib/bin/../lib/gcc/x86_64-nacl/4.4.3/../../../../x86_64-nacl/lib/../lib32/libnacl.a(sysconf.o)
 .bss           0x000000001004194c        0x0 /Users/ap/SDKs/nacl/pepper_31/toolchain/mac_x86_newlib/bin/../lib/gcc/x86_64-nacl/4.4.3/../../../../x86_64-nacl/lib/../lib32/libnacl.a(nacl_tls_init.o)
 .bss           0x000000001004194c        0x0 /Users/ap/SDKs/nacl/pepper_31/toolchain/mac_x86_newlib/bin/../lib/gcc/x86_64-nacl/4.4.3/../../../../x86_64-nacl/lib/../lib32/libcrt_common.a(lib_a-abort.o)
 .bss           0x000000001004194c        0x0 /Users/ap/SDKs/nacl/pepper_31/toolchain/mac_x86_newlib/bin/../lib/gcc/x86_64-nacl/4.4.3/../../../../x86_64-nacl/lib/../lib32/libcrt_common.a(lib_a-atexit.o)
 .bss           0x000000001004194c        0x0 /Users/ap/SDKs/nacl/pepper_31/toolchain/mac_x86_newlib/bin/../lib/gcc/x86_64-nacl/4.4.3/../../../../x86_64-nacl/lib/../lib32/libcrt_common.a(lib_a-errno.o)
 .bss           0x000000001004194c        0x0 /Users/ap/SDKs/nacl/pepper_31/toolchain/mac_x86_newlib/bin/../lib/gcc/x86_64-nacl/4.4.3/../../../../x86_64-nacl/lib/../lib32/libcrt_common.a(lib_a-fini.o)
 .bss           0x000000001004194c        0x0 /Users/ap/SDKs/nacl/pepper_31/toolchain/mac_x86_newlib/bin/../lib/gcc/x86_64-nacl/4.4.3/../../../../x86_64-nacl/lib/../lib32/libcrt_common.a(lib_a-fprintf.o)
 .bss           0x000000001004194c        0x0 /Users/ap/SDKs/nacl/pepper_31/toolchain/mac_x86_newlib/bin/../lib/gcc/x86_64-nacl/4.4.3/../../../../x86_64-nacl/lib/../lib32/libcrt_common.a(lib_a-init.o)
 .bss           0x000000001004194c        0x0 /Users/ap/SDKs/nacl/pepper_31/toolchain/mac_x86_newlib/bin/../lib/gcc/x86_64-nacl/4.4.3/../../../../x86_64-nacl/lib/../lib32/libcrt_common.a(lib_a-memcpy.o)
 .bss           0x000000001004194c        0x0 /Users/ap/SDKs/nacl/pepper_31/toolchain/mac_x86_newlib/bin/../lib/gcc/x86_64-nacl/4.4.3/../../../../x86_64-nacl/lib/../lib32/libcrt_common.a(lib_a-memset.o)
 .bss           0x000000001004194c        0x0 /Users/ap/SDKs/nacl/pepper_31/toolchain/mac_x86_newlib/bin/../lib/gcc/x86_64-nacl/4.4.3/../../../../x86_64-nacl/lib/../lib32/libcrt_common.a(lib_a-vfprintf.o)
 .bss           0x000000001004194c        0x0 /Users/ap/SDKs/nacl/pepper_31/toolchain/mac_x86_newlib/bin/../lib/gcc/x86_64-nacl/4.4.3/../../../../x86_64-nacl/lib/../lib32/libcrt_common.a(lib_a-wcrtomb.o)
 .bss           0x000000001004194c        0x0 /Users/ap/SDKs/nacl/pepper_31/toolchain/mac_x86_newlib/bin/../lib/gcc/x86_64-nacl/4.4.3/../../../../x86_64-nacl/lib/../lib32/libcrt_common.a(lib_a-wcsrtombs.o)
 .bss           0x000000001004194c        0x0 /Users/ap/SDKs/nacl/pepper_31/toolchain/mac_x86_newlib/bin/../lib/gcc/x86_64-nacl/4.4.3/../../../../x86_64-nacl/lib/../lib32/libcrt_common.a(lib_a-wctomb_r.o)
 .bss           0x000000001004194c        0x0 /Users/ap/SDKs/nacl/pepper_31/toolchain/mac_x86_newlib/bin/../lib/gcc/x86_64-nacl/4.4.3/../../../../x86_64-nacl/lib/../lib32/libcrt_common.a(lib_a-wsetup.o)
 .bss           0x000000001004194c        0x0 /Users/ap/SDKs/nacl/pepper_31/toolchain/mac_x86_newlib/bin/../lib/gcc/x86_64-nacl/4.4.3/../../../../x86_64-nacl/lib/../lib32/libcrt_common.a(lib_a-dtoa.o)
 .bss           0x000000001004194c        0x0 /Users/ap/SDKs/nacl/pepper_31/toolchain/mac_x86_newlib/bin/../lib/gcc/x86_64-nacl/4.4.3/../../../../x86_64-nacl/lib/../lib32/libcrt_common.a(lib_a-fflush.o)
 .bss           0x000000001004194c        0x0 /Users/ap/SDKs/nacl/pepper_31/toolchain/mac_x86_newlib/bin/../lib/gcc/x86_64-nacl/4.4.3/../../../../x86_64-nacl/lib/../lib32/libcrt_common.a(lib_a-findfp.o)
 .bss           0x000000001004194c        0x0 /Users/ap/SDKs/nacl/pepper_31/toolchain/mac_x86_newlib/bin/../lib/gcc/x86_64-nacl/4.4.3/../../../../x86_64-nacl/lib/../lib32/libcrt_common.a(lib_a-fwalk.o)
 *fill*         0x000000001004194c       0x14 00
 .bss           0x0000000010041960      0x2c7 /Users/ap/SDKs/nacl/pepper_31/toolchain/mac_x86_newlib/bin/../lib/gcc/x86_64-nacl/4.4.3/../../../../x86_64-nacl/lib/../lib32/libcrt_common.a(lib_a-locale.o)
                0x0000000010041960                __nlocale_changed
                0x0000000010041964                __mlocale_changed
                0x0000000010041968                _PathLocale
 *fill*         0x0000000010041c27        0x1 00
 .bss           0x0000000010041c28        0x0 /Users/ap/SDKs/nacl/pepper_31/toolchain/mac_x86_newlib/bin/../lib/gcc/x86_64-nacl/4.4.3/../../../../x86_64-nacl/lib/../lib32/libcrt_common.a(lib_a-makebuf.o)
 .bss           0x0000000010041c28        0x0 /Users/ap/SDKs/nacl/pepper_31/toolchain/mac_x86_newlib/bin/../lib/gcc/x86_64-nacl/4.4.3/../../../../x86_64-nacl/lib/../lib32/libcrt_common.a(lib_a-mbtowc_r.o)
 .bss           0x0000000010041c28        0x0 /Users/ap/SDKs/nacl/pepper_31/toolchain/mac_x86_newlib/bin/../lib/gcc/x86_64-nacl/4.4.3/../../../../x86_64-nacl/lib/../lib32/libcrt_common.a(lib_a-memchr.o)
 .bss           0x0000000010041c28        0x0 /Users/ap/SDKs/nacl/pepper_31/toolchain/mac_x86_newlib/bin/../lib/gcc/x86_64-nacl/4.4.3/../../../../x86_64-nacl/lib/../lib32/libcrt_common.a(lib_a-mprec.o)
 .bss           0x0000000010041c28        0x0 /Users/ap/SDKs/nacl/pepper_31/toolchain/mac_x86_newlib/bin/../lib/gcc/x86_64-nacl/4.4.3/../../../../x86_64-nacl/lib/../lib32/libcrt_common.a(lib_a-s_fpclassify.o)
 .bss           0x0000000010041c28        0x0 /Users/ap/SDKs/nacl/pepper_31/toolchain/mac_x86_newlib/bin/../lib/gcc/x86_64-nacl/4.4.3/../../../../x86_64-nacl/lib/../lib32/libcrt_common.a(lib_a-s_frexp.o)
 .bss           0x0000000010041c28        0x0 /Users/ap/SDKs/nacl/pepper_31/toolchain/mac_x86_newlib/bin/../lib/gcc/x86_64-nacl/4.4.3/../../../../x86_64-nacl/lib/../lib32/libcrt_common.a(lib_a-stdio.o)
 .bss           0x0000000010041c28        0x0 /Users/ap/SDKs/nacl/pepper_31/toolchain/mac_x86_newlib/bin/../lib/gcc/x86_64-nacl/4.4.3/../../../../x86_64-nacl/lib/../lib32/libcrt_common.a(lib_a-strcasecmp.o)
 .bss           0x0000000010041c28        0x0 /Users/ap/SDKs/nacl/pepper_31/toolchain/mac_x86_newlib/bin/../lib/gcc/x86_64-nacl/4.4.3/../../../../x86_64-nacl/lib/../lib32/libcrt_common.a(lib_a-strcat.o)
 .bss           0x0000000010041c28        0x0 /Users/ap/SDKs/nacl/pepper_31/toolchain/mac_x86_newlib/bin/../lib/gcc/x86_64-nacl/4.4.3/../../../../x86_64-nacl/lib/../lib32/libcrt_common.a(lib_a-strchr.o)
 .bss           0x0000000010041c28        0x0 /Users/ap/SDKs/nacl/pepper_31/toolchain/mac_x86_newlib/bin/../lib/gcc/x86_64-nacl/4.4.3/../../../../x86_64-nacl/lib/../lib32/libcrt_common.a(lib_a-strcmp.o)
 .bss           0x0000000010041c28        0x0 /Users/ap/SDKs/nacl/pepper_31/toolchain/mac_x86_newlib/bin/../lib/gcc/x86_64-nacl/4.4.3/../../../../x86_64-nacl/lib/../lib32/libcrt_common.a(lib_a-strcpy.o)
 .bss           0x0000000010041c28        0x0 /Users/ap/SDKs/nacl/pepper_31/toolchain/mac_x86_newlib/bin/../lib/gcc/x86_64-nacl/4.4.3/../../../../x86_64-nacl/lib/../lib32/libcrt_common.a(lib_a-strlcpy.o)
 .bss           0x0000000010041c28        0x0 /Users/ap/SDKs/nacl/pepper_31/toolchain/mac_x86_newlib/bin/../lib/gcc/x86_64-nacl/4.4.3/../../../../x86_64-nacl/lib/../lib32/libcrt_common.a(lib_a-strncasecmp.o)
 .bss           0x0000000010041c28        0x0 /Users/ap/SDKs/nacl/pepper_31/toolchain/mac_x86_newlib/bin/../lib/gcc/x86_64-nacl/4.4.3/../../../../x86_64-nacl/lib/../lib32/libcrt_common.a(lib_a-strncpy.o)
 .bss           0x0000000010041c28        0x0 /Users/ap/SDKs/nacl/pepper_31/toolchain/mac_x86_newlib/bin/../lib/gcc/x86_64-nacl/4.4.3/../../../../x86_64-nacl/lib/../lib32/libcrt_common.a(lib_a-strtol.o)
 .bss           0x0000000010041c28        0x0 /Users/ap/SDKs/nacl/pepper_31/toolchain/mac_x86_newlib/bin/../lib/gcc/x86_64-nacl/4.4.3/../../../../x86_64-nacl/lib/../lib32/libcrt_common.a(lib_a-vfiprintf.o)
 .bss           0x0000000010041c28        0x0 /Users/ap/SDKs/nacl/pepper_31/toolchain/mac_x86_newlib/bin/../lib/gcc/x86_64-nacl/4.4.3/../../../../x86_64-nacl/lib/../lib32/libcrt_common.a(lib_a-wcsnrtombs.o)
 .bss           0x0000000010041c28        0x0 /Users/ap/SDKs/nacl/pepper_31/toolchain/mac_x86_newlib/bin/../lib/gcc/x86_64-nacl/4.4.3/../../../../x86_64-nacl/lib/../lib32/libcrt_common.a(lib_a-writer.o)
 .bss           0x0000000010041c28        0x0 /Users/ap/SDKs/nacl/pepper_31/toolchain/mac_x86_newlib/bin/../lib/gcc/x86_64-nacl/4.4.3/../../../../x86_64-nacl/lib/../lib32/libcrt_common.a(lib_a-closer.o)
 .bss           0x0000000010041c28        0x0 /Users/ap/SDKs/nacl/pepper_31/toolchain/mac_x86_newlib/bin/../lib/gcc/x86_64-nacl/4.4.3/../../../../x86_64-nacl/lib/../lib32/libcrt_common.a(lib_a-ctype_.o)
 .bss           0x0000000010041c28        0x0 /Users/ap/SDKs/nacl/pepper_31/toolchain/mac_x86_newlib/bin/../lib/gcc/x86_64-nacl/4.4.3/../../../../x86_64-nacl/lib/../lib32/libcrt_common.a(lib_a-fclose.o)
 .bss           0x0000000010041c28        0x0 /Users/ap/SDKs/nacl/pepper_31/toolchain/mac_x86_newlib/bin/../lib/gcc/x86_64-nacl/4.4.3/../../../../x86_64-nacl/lib/../lib32/libcrt_common.a(lib_a-fputwc.o)
 .bss           0x0000000010041c28        0x0 /Users/ap/SDKs/nacl/pepper_31/toolchain/mac_x86_newlib/bin/../lib/gcc/x86_64-nacl/4.4.3/../../../../x86_64-nacl/lib/../lib32/libcrt_common.a(lib_a-fstatr.o)
 .bss           0x0000000010041c28        0x0 /Users/ap/SDKs/nacl/pepper_31/toolchain/mac_x86_newlib/bin/../lib/gcc/x86_64-nacl/4.4.3/../../../../x86_64-nacl/lib/../lib32/libcrt_common.a(lib_a-fvwrite.o)
 .bss           0x0000000010041c28        0x0 /Users/ap/SDKs/nacl/pepper_31/toolchain/mac_x86_newlib/bin/../lib/gcc/x86_64-nacl/4.4.3/../../../../x86_64-nacl/lib/../lib32/libcrt_common.a(lib_a-isattyr.o)
 .bss           0x0000000010041c28        0x0 /Users/ap/SDKs/nacl/pepper_31/toolchain/mac_x86_newlib/bin/../lib/gcc/x86_64-nacl/4.4.3/../../../../x86_64-nacl/lib/../lib32/libcrt_common.a(lib_a-lseekr.o)
 .bss           0x0000000010041c28        0x0 /Users/ap/SDKs/nacl/pepper_31/toolchain/mac_x86_newlib/bin/../lib/gcc/x86_64-nacl/4.4.3/../../../../x86_64-nacl/lib/../lib32/libcrt_common.a(lib_a-memmove.o)
 .bss           0x0000000010041c28        0x0 /Users/ap/SDKs/nacl/pepper_31/toolchain/mac_x86_newlib/bin/../lib/gcc/x86_64-nacl/4.4.3/../../../../x86_64-nacl/lib/../lib32/libcrt_common.a(lib_a-readr.o)
 .bss           0x0000000010041c28        0x0 /Users/ap/SDKs/nacl/pepper_31/toolchain/mac_x86_newlib/bin/../lib/gcc/x86_64-nacl/4.4.3/../../../../x86_64-nacl/lib/../lib32/libcrt_common.a(lib_a-reent.o)
 .bss           0x0000000010041c28        0x0 /Users/ap/SDKs/nacl/pepper_31/toolchain/mac_x86_newlib/bin/../lib/gcc/x86_64-nacl/4.4.3/../../../../x86_64-nacl/lib/../lib32/libcrt_common.a(lib_a-wbuf.o)
 .bss           0x0000000010041c28        0x0 /Users/ap/SDKs/nacl/pepper_31/toolchain/mac_x86_newlib/bin/../lib/gcc/x86_64-nacl/4.4.3/../../../../x86_64-nacl/lib/../lib32/libcrt_common.a(lib_a-isatty.o)
 .bss           0x0000000010041c28        0x0 /Users/ap/SDKs/nacl/pepper_31/toolchain/mac_x86_newlib/bin/../lib/gcc/x86_64-nacl/4.4.3/../../../../x86_64-nacl/lib/../lib32/libcrt_common.a(lib_a-_isatty.o)
 .bss           0x0000000010041c28        0x0 /Users/ap/SDKs/nacl/pepper_31/toolchain/mac_x86_newlib/bin/../lib/gcc/x86_64-nacl/4.4.3/../../../../x86_64-nacl/lib/../lib32/libnacl.a(close.o)
 .bss           0x0000000010041c28        0x0 /Users/ap/SDKs/nacl/pepper_31/toolchain/mac_x86_newlib/bin/../lib/gcc/x86_64-nacl/4.4.3/../../../../x86_64-nacl/lib/../lib32/libnacl.a(fstat.o)
 .bss           0x0000000010041c28        0x0 /Users/ap/SDKs/nacl/pepper_31/toolchain/mac_x86_newlib/bin/../lib/gcc/x86_64-nacl/4.4.3/../../../../x86_64-nacl/lib/../lib32/libnacl.a(lseek.o)
 .bss           0x0000000010041c28        0x0 /Users/ap/SDKs/nacl/pepper_31/toolchain/mac_x86_newlib/bin/../lib/gcc/x86_64-nacl/4.4.3/../../../../x86_64-nacl/lib/../lib32/libnacl.a(read.o)
 .bss           0x0000000010041c28        0x0 /Users/ap/SDKs/nacl/pepper_31/toolchain/mac_x86_newlib/bin/../lib/gcc/x86_64-nacl/4.4.3/32/libgcc.a(_udivdi3.o)
 .bss           0x0000000010041c28        0x0 /Users/ap/SDKs/nacl/pepper_31/toolchain/mac_x86_newlib/bin/../lib/gcc/x86_64-nacl/4.4.3/32/libgcc.a(_umoddi3.o)
 .bss           0x0000000010041c28        0x0 /Users/ap/SDKs/nacl/pepper_31/toolchain/mac_x86_newlib/bin/../lib/gcc/x86_64-nacl/4.4.3/32/crtend.o
 .bss           0x0000000010041c28        0x0 /Users/ap/SDKs/nacl/pepper_31/toolchain/mac_x86_newlib/bin/../lib/gcc/x86_64-nacl/4.4.3/../../../../x86_64-nacl/lib/../lib32/crtn.o
 *(COMMON)
 COMMON         0x0000000010041c28       0x34 /Users/ap/SDKs/nacl/pepper_31/toolchain/mac_x86_newlib/bin/../lib/gcc/x86_64-nacl/4.4.3/../../../../x86_64-nacl/lib/../lib32/libpthread.a(nc_thread.o)
                0x0000000010041c28                __nc_thread_initialized
                0x0000000010041c2c                __nc_thread_management_lock
                0x0000000010041c40                __nc_memory_block_counter
                0x0000000010041c48                __nc_initial_thread_id
                0x0000000010041c4c                __nc_thread_memory_blocks
 COMMON         0x0000000010041c5c        0x8 /Users/ap/SDKs/nacl/pepper_31/toolchain/mac_x86_newlib/bin/../lib/gcc/x86_64-nacl/4.4.3/../../../../x86_64-nacl/lib/../lib32/libpthread.a(nc_init_irt.o)
                0x0000000010041c5c                __nc_irt_futex
 COMMON         0x0000000010041c64        0x4 /Users/ap/SDKs/nacl/pepper_31/toolchain/mac_x86_newlib/bin/../lib/gcc/x86_64-nacl/4.4.3/../../../../x86_64-nacl/lib/../lib32/libnacl.a(start.o)
                0x0000000010041c64                __nacl_initial_thread_stack_end
 COMMON         0x0000000010041c68       0x58 /Users/ap/SDKs/nacl/pepper_31/toolchain/mac_x86_newlib/bin/../lib/gcc/x86_64-nacl/4.4.3/../../../../x86_64-nacl/lib/../lib32/libnacl.a(nacl_irt.o)
                0x0000000010041c68                __nacl_irt_query
                0x0000000010041c6c                __libnacl_irt_dev_filename
                0x0000000010041c88                __libnacl_irt_clock
                0x0000000010041c90                __libnacl_irt_memory
                0x0000000010041c9c                __libnacl_irt_basic
                0x0000000010041cb4                __libnacl_irt_tls
                0x0000000010041cbc                __libnacl_irt_dev_getpid
 COMMON         0x0000000010041cc0        0x4 /Users/ap/SDKs/nacl/pepper_31/toolchain/mac_x86_newlib/bin/../lib/gcc/x86_64-nacl/4.4.3/../../../../x86_64-nacl/lib/../lib32/libcrt_common.a(lib_a-reent.o)
                0x0000000010041cc0                errno
                0x0000000010041cc4                . = ALIGN ((. != 0x0)?0x4:0x1)
                0x0000000010041cc4                . = ALIGN (0x4)
                0x0000000010041cc4                . = ALIGN (0x4)
                0x0000000010041cc4                _end = .
                0x0000000010041cc4                PROVIDE (end, .)
                0x0000000010041cc4                . = DATA_SEGMENT_END (.)

.stab
 *(.stab)

.stabstr
 *(.stabstr)

.stab.excl
 *(.stab.excl)

.stab.exclstr
 *(.stab.exclstr)

.stab.index
 *(.stab.index)

.stab.indexstr
 *(.stab.indexstr)

.comment        0x0000000000000000       0x66
 *(.comment)
 .comment       0x0000000000000000       0x66 /Users/ap/SDKs/nacl/pepper_31/toolchain/mac_x86_newlib/bin/../lib/gcc/x86_64-nacl/4.4.3/32/crtbegin.o
                                         0x67 (size before relaxing)
 .comment       0x0000000000000000       0x67 /Users/ap/SDKs/nacl/pepper_31/toolchain/mac_x86_newlib/bin/../lib/gcc/x86_64-nacl/4.4.3/../../../../x86_64-nacl/lib/../lib32/libppapi_stub.a(plugin_main_irt.o)
 .comment       0x0000000000000000       0x67 /Users/ap/SDKs/nacl/pepper_31/toolchain/mac_x86_newlib/bin/../lib/gcc/x86_64-nacl/4.4.3/../../../../x86_64-nacl/lib/../lib32/libppapi_stub.a(ppapi_plugin_main.o)
 .comment       0x0000000000000000       0x67 /Users/ap/SDKs/nacl/pepper_31/toolchain/mac_x86_newlib/bin/../lib/gcc/x86_64-nacl/4.4.3/../../../../x86_64-nacl/lib/../lib32/libppapi_stub.a(ppapi_plugin_start.o)
 .comment       0x0000000000000000       0x67 /Users/ap/SDKs/nacl/pepper_31/toolchain/mac_x86_newlib/bin/../lib/gcc/x86_64-nacl/4.4.3/../../../../x86_64-nacl/lib/../lib32/libppapi_stub.a(thread_creator.o)
 .comment       0x0000000000000000       0x67 /Users/ap/SDKs/nacl/pepper_31/toolchain/mac_x86_newlib/bin/../lib/gcc/x86_64-nacl/4.4.3/../../../../x86_64-nacl/lib/../lib32/libpthread.a(nc_thread.o)
 .comment       0x0000000000000000       0x67 /Users/ap/SDKs/nacl/pepper_31/toolchain/mac_x86_newlib/bin/../lib/gcc/x86_64-nacl/4.4.3/../../../../x86_64-nacl/lib/../lib32/libpthread.a(nc_condvar.o)
 .comment       0x0000000000000000       0x67 /Users/ap/SDKs/nacl/pepper_31/toolchain/mac_x86_newlib/bin/../lib/gcc/x86_64-nacl/4.4.3/../../../../x86_64-nacl/lib/../lib32/libpthread.a(dynamic_annotations.o)
 .comment       0x0000000000000000       0x67 /Users/ap/SDKs/nacl/pepper_31/toolchain/mac_x86_newlib/bin/../lib/gcc/x86_64-nacl/4.4.3/../../../../x86_64-nacl/lib/../lib32/libpthread.a(nc_mutex.o)
 .comment       0x0000000000000000       0x67 /Users/ap/SDKs/nacl/pepper_31/toolchain/mac_x86_newlib/bin/../lib/gcc/x86_64-nacl/4.4.3/../../../../x86_64-nacl/lib/../lib32/libpthread.a(nc_init_irt.o)
 .comment       0x0000000000000000       0x67 /Users/ap/SDKs/nacl/pepper_31/toolchain/mac_x86_newlib/bin/../lib/gcc/x86_64-nacl/4.4.3/../../../../x86_64-nacl/lib/../lib32/libcrt_common.a(lib_a-environ.o)
 .comment       0x0000000000000000       0x67 /Users/ap/SDKs/nacl/pepper_31/toolchain/mac_x86_newlib/bin/../lib/gcc/x86_64-nacl/4.4.3/../../../../x86_64-nacl/lib/../lib32/libcrt_common.a(lib_a-exit.o)
 .comment       0x0000000000000000       0x67 /Users/ap/SDKs/nacl/pepper_31/toolchain/mac_x86_newlib/bin/../lib/gcc/x86_64-nacl/4.4.3/../../../../x86_64-nacl/lib/../lib32/libcrt_common.a(lib_a-getenv.o)
 .comment       0x0000000000000000       0x67 /Users/ap/SDKs/nacl/pepper_31/toolchain/mac_x86_newlib/bin/../lib/gcc/x86_64-nacl/4.4.3/../../../../x86_64-nacl/lib/../lib32/libcrt_common.a(lib_a-getenv_r.o)
 .comment       0x0000000000000000       0x67 /Users/ap/SDKs/nacl/pepper_31/toolchain/mac_x86_newlib/bin/../lib/gcc/x86_64-nacl/4.4.3/../../../../x86_64-nacl/lib/../lib32/libcrt_common.a(lib_a-impure.o)
 .comment       0x0000000000000000       0x67 /Users/ap/SDKs/nacl/pepper_31/toolchain/mac_x86_newlib/bin/../lib/gcc/x86_64-nacl/4.4.3/../../../../x86_64-nacl/lib/../lib32/libcrt_common.a(lib_a-strncmp.o)
 .comment       0x0000000000000000       0x67 /Users/ap/SDKs/nacl/pepper_31/toolchain/mac_x86_newlib/bin/../lib/gcc/x86_64-nacl/4.4.3/../../../../x86_64-nacl/lib/../lib32/libcrt_common.a(lib_a-__call_atexit.o)
 .comment       0x0000000000000000       0x67 /Users/ap/SDKs/nacl/pepper_31/toolchain/mac_x86_newlib/bin/../lib/gcc/x86_64-nacl/4.4.3/../../../../x86_64-nacl/lib/../lib32/libcrt_common.a(lib_a-envlock.o)
 .comment       0x0000000000000000       0x67 /Users/ap/SDKs/nacl/pepper_31/toolchain/mac_x86_newlib/bin/../lib/gcc/x86_64-nacl/4.4.3/../../../../x86_64-nacl/lib/../lib32/libcrt_common.a(lib_a-__atexit.o)
 .comment       0x0000000000000000       0x67 /Users/ap/SDKs/nacl/pepper_31/toolchain/mac_x86_newlib/bin/../lib/gcc/x86_64-nacl/4.4.3/../../../../x86_64-nacl/lib/../lib32/libnacl.a(_exit.o)
 .comment       0x0000000000000000       0x67 /Users/ap/SDKs/nacl/pepper_31/toolchain/mac_x86_newlib/bin/../lib/gcc/x86_64-nacl/4.4.3/../../../../x86_64-nacl/lib/../lib32/libnacl.a(start.o)
 .comment       0x0000000000000000       0x67 /Users/ap/SDKs/nacl/pepper_31/toolchain/mac_x86_newlib/bin/../lib/gcc/x86_64-nacl/4.4.3/../../../../x86_64-nacl/lib/../lib32/libnacl.a(malloc.o)
 .comment       0x0000000000000000       0x67 /Users/ap/SDKs/nacl/pepper_31/toolchain/mac_x86_newlib/bin/../lib/gcc/x86_64-nacl/4.4.3/../../../../x86_64-nacl/lib/../lib32/libnacl.a(nacl_irt.o)
 .comment       0x0000000000000000       0x67 /Users/ap/SDKs/nacl/pepper_31/toolchain/mac_x86_newlib/bin/../lib/gcc/x86_64-nacl/4.4.3/../../../../x86_64-nacl/lib/../lib32/libnacl.a(pthread_initialize_minimal.o)
 .comment       0x0000000000000000       0x67 /Users/ap/SDKs/nacl/pepper_31/toolchain/mac_x86_newlib/bin/../lib/gcc/x86_64-nacl/4.4.3/../../../../x86_64-nacl/lib/../lib32/libnacl.a(nacl_read_tp.o)
 .comment       0x0000000000000000       0x67 /Users/ap/SDKs/nacl/pepper_31/toolchain/mac_x86_newlib/bin/../lib/gcc/x86_64-nacl/4.4.3/../../../../x86_64-nacl/lib/../lib32/libnacl.a(mmap.o)
 .comment       0x0000000000000000       0x67 /Users/ap/SDKs/nacl/pepper_31/toolchain/mac_x86_newlib/bin/../lib/gcc/x86_64-nacl/4.4.3/../../../../x86_64-nacl/lib/../lib32/libnacl.a(sched_yield.o)
 .comment       0x0000000000000000       0x67 /Users/ap/SDKs/nacl/pepper_31/toolchain/mac_x86_newlib/bin/../lib/gcc/x86_64-nacl/4.4.3/../../../../x86_64-nacl/lib/../lib32/libnacl.a(munmap.o)
 .comment       0x0000000000000000       0x67 /Users/ap/SDKs/nacl/pepper_31/toolchain/mac_x86_newlib/bin/../lib/gcc/x86_64-nacl/4.4.3/../../../../x86_64-nacl/lib/../lib32/libnacl.a(tls.o)
 .comment       0x0000000000000000       0x67 /Users/ap/SDKs/nacl/pepper_31/toolchain/mac_x86_newlib/bin/../lib/gcc/x86_64-nacl/4.4.3/../../../../x86_64-nacl/lib/../lib32/libnacl.a(write.o)
 .comment       0x0000000000000000       0x67 /Users/ap/SDKs/nacl/pepper_31/toolchain/mac_x86_newlib/bin/../lib/gcc/x86_64-nacl/4.4.3/../../../../x86_64-nacl/lib/../lib32/libnacl.a(sysconf.o)
 .comment       0x0000000000000000       0x67 /Users/ap/SDKs/nacl/pepper_31/toolchain/mac_x86_newlib/bin/../lib/gcc/x86_64-nacl/4.4.3/../../../../x86_64-nacl/lib/../lib32/libnacl.a(nacl_tls_init.o)
 .comment       0x0000000000000000       0x67 /Users/ap/SDKs/nacl/pepper_31/toolchain/mac_x86_newlib/bin/../lib/gcc/x86_64-nacl/4.4.3/../../../../x86_64-nacl/lib/../lib32/libcrt_common.a(lib_a-abort.o)
 .comment       0x0000000000000000       0x67 /Users/ap/SDKs/nacl/pepper_31/toolchain/mac_x86_newlib/bin/../lib/gcc/x86_64-nacl/4.4.3/../../../../x86_64-nacl/lib/../lib32/libcrt_common.a(lib_a-atexit.o)
 .comment       0x0000000000000000       0x67 /Users/ap/SDKs/nacl/pepper_31/toolchain/mac_x86_newlib/bin/../lib/gcc/x86_64-nacl/4.4.3/../../../../x86_64-nacl/lib/../lib32/libcrt_common.a(lib_a-errno.o)
 .comment       0x0000000000000000       0x67 /Users/ap/SDKs/nacl/pepper_31/toolchain/mac_x86_newlib/bin/../lib/gcc/x86_64-nacl/4.4.3/../../../../x86_64-nacl/lib/../lib32/libcrt_common.a(lib_a-fini.o)
 .comment       0x0000000000000000       0x67 /Users/ap/SDKs/nacl/pepper_31/toolchain/mac_x86_newlib/bin/../lib/gcc/x86_64-nacl/4.4.3/../../../../x86_64-nacl/lib/../lib32/libcrt_common.a(lib_a-fprintf.o)
 .comment       0x0000000000000000       0x67 /Users/ap/SDKs/nacl/pepper_31/toolchain/mac_x86_newlib/bin/../lib/gcc/x86_64-nacl/4.4.3/../../../../x86_64-nacl/lib/../lib32/libcrt_common.a(lib_a-init.o)
 .comment       0x0000000000000000       0x67 /Users/ap/SDKs/nacl/pepper_31/toolchain/mac_x86_newlib/bin/../lib/gcc/x86_64-nacl/4.4.3/../../../../x86_64-nacl/lib/../lib32/libcrt_common.a(lib_a-vfprintf.o)
 .comment       0x0000000000000000       0x67 /Users/ap/SDKs/nacl/pepper_31/toolchain/mac_x86_newlib/bin/../lib/gcc/x86_64-nacl/4.4.3/../../../../x86_64-nacl/lib/../lib32/libcrt_common.a(lib_a-wcrtomb.o)
 .comment       0x0000000000000000       0x67 /Users/ap/SDKs/nacl/pepper_31/toolchain/mac_x86_newlib/bin/../lib/gcc/x86_64-nacl/4.4.3/../../../../x86_64-nacl/lib/../lib32/libcrt_common.a(lib_a-wcsrtombs.o)
 .comment       0x0000000000000000       0x67 /Users/ap/SDKs/nacl/pepper_31/toolchain/mac_x86_newlib/bin/../lib/gcc/x86_64-nacl/4.4.3/../../../../x86_64-nacl/lib/../lib32/libcrt_common.a(lib_a-wctomb_r.o)
 .comment       0x0000000000000000       0x67 /Users/ap/SDKs/nacl/pepper_31/toolchain/mac_x86_newlib/bin/../lib/gcc/x86_64-nacl/4.4.3/../../../../x86_64-nacl/lib/../lib32/libcrt_common.a(lib_a-wsetup.o)
 .comment       0x0000000000000000       0x67 /Users/ap/SDKs/nacl/pepper_31/toolchain/mac_x86_newlib/bin/../lib/gcc/x86_64-nacl/4.4.3/../../../../x86_64-nacl/lib/../lib32/libcrt_common.a(lib_a-dtoa.o)
 .comment       0x0000000000000000       0x67 /Users/ap/SDKs/nacl/pepper_31/toolchain/mac_x86_newlib/bin/../lib/gcc/x86_64-nacl/4.4.3/../../../../x86_64-nacl/lib/../lib32/libcrt_common.a(lib_a-fflush.o)
 .comment       0x0000000000000000       0x67 /Users/ap/SDKs/nacl/pepper_31/toolchain/mac_x86_newlib/bin/../lib/gcc/x86_64-nacl/4.4.3/../../../../x86_64-nacl/lib/../lib32/libcrt_common.a(lib_a-findfp.o)
 .comment       0x0000000000000000       0x67 /Users/ap/SDKs/nacl/pepper_31/toolchain/mac_x86_newlib/bin/../lib/gcc/x86_64-nacl/4.4.3/../../../../x86_64-nacl/lib/../lib32/libcrt_common.a(lib_a-fwalk.o)
 .comment       0x0000000000000000       0x67 /Users/ap/SDKs/nacl/pepper_31/toolchain/mac_x86_newlib/bin/../lib/gcc/x86_64-nacl/4.4.3/../../../../x86_64-nacl/lib/../lib32/libcrt_common.a(lib_a-locale.o)
 .comment       0x0000000000000000       0x67 /Users/ap/SDKs/nacl/pepper_31/toolchain/mac_x86_newlib/bin/../lib/gcc/x86_64-nacl/4.4.3/../../../../x86_64-nacl/lib/../lib32/libcrt_common.a(lib_a-makebuf.o)
 .comment       0x0000000000000000       0x67 /Users/ap/SDKs/nacl/pepper_31/toolchain/mac_x86_newlib/bin/../lib/gcc/x86_64-nacl/4.4.3/../../../../x86_64-nacl/lib/../lib32/libcrt_common.a(lib_a-mbtowc_r.o)
 .comment       0x0000000000000000       0x67 /Users/ap/SDKs/nacl/pepper_31/toolchain/mac_x86_newlib/bin/../lib/gcc/x86_64-nacl/4.4.3/../../../../x86_64-nacl/lib/../lib32/libcrt_common.a(lib_a-mprec.o)
 .comment       0x0000000000000000       0x67 /Users/ap/SDKs/nacl/pepper_31/toolchain/mac_x86_newlib/bin/../lib/gcc/x86_64-nacl/4.4.3/../../../../x86_64-nacl/lib/../lib32/libcrt_common.a(lib_a-s_fpclassify.o)
 .comment       0x0000000000000000       0x67 /Users/ap/SDKs/nacl/pepper_31/toolchain/mac_x86_newlib/bin/../lib/gcc/x86_64-nacl/4.4.3/../../../../x86_64-nacl/lib/../lib32/libcrt_common.a(lib_a-s_frexp.o)
 .comment       0x0000000000000000       0x67 /Users/ap/SDKs/nacl/pepper_31/toolchain/mac_x86_newlib/bin/../lib/gcc/x86_64-nacl/4.4.3/../../../../x86_64-nacl/lib/../lib32/libcrt_common.a(lib_a-stdio.o)
 .comment       0x0000000000000000       0x67 /Users/ap/SDKs/nacl/pepper_31/toolchain/mac_x86_newlib/bin/../lib/gcc/x86_64-nacl/4.4.3/../../../../x86_64-nacl/lib/../lib32/libcrt_common.a(lib_a-strcasecmp.o)
 .comment       0x0000000000000000       0x67 /Users/ap/SDKs/nacl/pepper_31/toolchain/mac_x86_newlib/bin/../lib/gcc/x86_64-nacl/4.4.3/../../../../x86_64-nacl/lib/../lib32/libcrt_common.a(lib_a-strcat.o)
 .comment       0x0000000000000000       0x67 /Users/ap/SDKs/nacl/pepper_31/toolchain/mac_x86_newlib/bin/../lib/gcc/x86_64-nacl/4.4.3/../../../../x86_64-nacl/lib/../lib32/libcrt_common.a(lib_a-strcmp.o)
 .comment       0x0000000000000000       0x67 /Users/ap/SDKs/nacl/pepper_31/toolchain/mac_x86_newlib/bin/../lib/gcc/x86_64-nacl/4.4.3/../../../../x86_64-nacl/lib/../lib32/libcrt_common.a(lib_a-strcpy.o)
 .comment       0x0000000000000000       0x67 /Users/ap/SDKs/nacl/pepper_31/toolchain/mac_x86_newlib/bin/../lib/gcc/x86_64-nacl/4.4.3/../../../../x86_64-nacl/lib/../lib32/libcrt_common.a(lib_a-strlcpy.o)
 .comment       0x0000000000000000       0x67 /Users/ap/SDKs/nacl/pepper_31/toolchain/mac_x86_newlib/bin/../lib/gcc/x86_64-nacl/4.4.3/../../../../x86_64-nacl/lib/../lib32/libcrt_common.a(lib_a-strncasecmp.o)
 .comment       0x0000000000000000       0x67 /Users/ap/SDKs/nacl/pepper_31/toolchain/mac_x86_newlib/bin/../lib/gcc/x86_64-nacl/4.4.3/../../../../x86_64-nacl/lib/../lib32/libcrt_common.a(lib_a-strncpy.o)
 .comment       0x0000000000000000       0x67 /Users/ap/SDKs/nacl/pepper_31/toolchain/mac_x86_newlib/bin/../lib/gcc/x86_64-nacl/4.4.3/../../../../x86_64-nacl/lib/../lib32/libcrt_common.a(lib_a-strtol.o)
 .comment       0x0000000000000000       0x67 /Users/ap/SDKs/nacl/pepper_31/toolchain/mac_x86_newlib/bin/../lib/gcc/x86_64-nacl/4.4.3/../../../../x86_64-nacl/lib/../lib32/libcrt_common.a(lib_a-vfiprintf.o)
 .comment       0x0000000000000000       0x67 /Users/ap/SDKs/nacl/pepper_31/toolchain/mac_x86_newlib/bin/../lib/gcc/x86_64-nacl/4.4.3/../../../../x86_64-nacl/lib/../lib32/libcrt_common.a(lib_a-wcsnrtombs.o)
 .comment       0x0000000000000000       0x67 /Users/ap/SDKs/nacl/pepper_31/toolchain/mac_x86_newlib/bin/../lib/gcc/x86_64-nacl/4.4.3/../../../../x86_64-nacl/lib/../lib32/libcrt_common.a(lib_a-writer.o)
 .comment       0x0000000000000000       0x67 /Users/ap/SDKs/nacl/pepper_31/toolchain/mac_x86_newlib/bin/../lib/gcc/x86_64-nacl/4.4.3/../../../../x86_64-nacl/lib/../lib32/libcrt_common.a(lib_a-closer.o)
 .comment       0x0000000000000000       0x67 /Users/ap/SDKs/nacl/pepper_31/toolchain/mac_x86_newlib/bin/../lib/gcc/x86_64-nacl/4.4.3/../../../../x86_64-nacl/lib/../lib32/libcrt_common.a(lib_a-ctype_.o)
 .comment       0x0000000000000000       0x67 /Users/ap/SDKs/nacl/pepper_31/toolchain/mac_x86_newlib/bin/../lib/gcc/x86_64-nacl/4.4.3/../../../../x86_64-nacl/lib/../lib32/libcrt_common.a(lib_a-fclose.o)
 .comment       0x0000000000000000       0x67 /Users/ap/SDKs/nacl/pepper_31/toolchain/mac_x86_newlib/bin/../lib/gcc/x86_64-nacl/4.4.3/../../../../x86_64-nacl/lib/../lib32/libcrt_common.a(lib_a-fputwc.o)
 .comment       0x0000000000000000       0x67 /Users/ap/SDKs/nacl/pepper_31/toolchain/mac_x86_newlib/bin/../lib/gcc/x86_64-nacl/4.4.3/../../../../x86_64-nacl/lib/../lib32/libcrt_common.a(lib_a-fstatr.o)
 .comment       0x0000000000000000       0x67 /Users/ap/SDKs/nacl/pepper_31/toolchain/mac_x86_newlib/bin/../lib/gcc/x86_64-nacl/4.4.3/../../../../x86_64-nacl/lib/../lib32/libcrt_common.a(lib_a-fvwrite.o)
 .comment       0x0000000000000000       0x67 /Users/ap/SDKs/nacl/pepper_31/toolchain/mac_x86_newlib/bin/../lib/gcc/x86_64-nacl/4.4.3/../../../../x86_64-nacl/lib/../lib32/libcrt_common.a(lib_a-isattyr.o)
 .comment       0x0000000000000000       0x67 /Users/ap/SDKs/nacl/pepper_31/toolchain/mac_x86_newlib/bin/../lib/gcc/x86_64-nacl/4.4.3/../../../../x86_64-nacl/lib/../lib32/libcrt_common.a(lib_a-lseekr.o)
 .comment       0x0000000000000000       0x67 /Users/ap/SDKs/nacl/pepper_31/toolchain/mac_x86_newlib/bin/../lib/gcc/x86_64-nacl/4.4.3/../../../../x86_64-nacl/lib/../lib32/libcrt_common.a(lib_a-readr.o)
 .comment       0x0000000000000000       0x67 /Users/ap/SDKs/nacl/pepper_31/toolchain/mac_x86_newlib/bin/../lib/gcc/x86_64-nacl/4.4.3/../../../../x86_64-nacl/lib/../lib32/libcrt_common.a(lib_a-reent.o)
 .comment       0x0000000000000000       0x67 /Users/ap/SDKs/nacl/pepper_31/toolchain/mac_x86_newlib/bin/../lib/gcc/x86_64-nacl/4.4.3/../../../../x86_64-nacl/lib/../lib32/libcrt_common.a(lib_a-wbuf.o)
 .comment       0x0000000000000000       0x67 /Users/ap/SDKs/nacl/pepper_31/toolchain/mac_x86_newlib/bin/../lib/gcc/x86_64-nacl/4.4.3/../../../../x86_64-nacl/lib/../lib32/libcrt_common.a(lib_a-isatty.o)
 .comment       0x0000000000000000       0x67 /Users/ap/SDKs/nacl/pepper_31/toolchain/mac_x86_newlib/bin/../lib/gcc/x86_64-nacl/4.4.3/../../../../x86_64-nacl/lib/../lib32/libcrt_common.a(lib_a-_isatty.o)
 .comment       0x0000000000000000       0x67 /Users/ap/SDKs/nacl/pepper_31/toolchain/mac_x86_newlib/bin/../lib/gcc/x86_64-nacl/4.4.3/../../../../x86_64-nacl/lib/../lib32/libnacl.a(close.o)
 .comment       0x0000000000000000       0x67 /Users/ap/SDKs/nacl/pepper_31/toolchain/mac_x86_newlib/bin/../lib/gcc/x86_64-nacl/4.4.3/../../../../x86_64-nacl/lib/../lib32/libnacl.a(fstat.o)
 .comment       0x0000000000000000       0x67 /Users/ap/SDKs/nacl/pepper_31/toolchain/mac_x86_newlib/bin/../lib/gcc/x86_64-nacl/4.4.3/../../../../x86_64-nacl/lib/../lib32/libnacl.a(lseek.o)
 .comment       0x0000000000000000       0x67 /Users/ap/SDKs/nacl/pepper_31/toolchain/mac_x86_newlib/bin/../lib/gcc/x86_64-nacl/4.4.3/../../../../x86_64-nacl/lib/../lib32/libnacl.a(read.o)
 .comment       0x0000000000000000       0x67 /Users/ap/SDKs/nacl/pepper_31/toolchain/mac_x86_newlib/bin/../lib/gcc/x86_64-nacl/4.4.3/32/libgcc.a(_udivdi3.o)
 .comment       0x0000000000000000       0x67 /Users/ap/SDKs/nacl/pepper_31/toolchain/mac_x86_newlib/bin/../lib/gcc/x86_64-nacl/4.4.3/32/libgcc.a(_umoddi3.o)
 .comment       0x0000000000000000       0x67 /Users/ap/SDKs/nacl/pepper_31/toolchain/mac_x86_newlib/bin/../lib/gcc/x86_64-nacl/4.4.3/32/crtend.o

.debug
 *(.debug)

.line
 *(.line)

.debug_srcinfo
 *(.debug_srcinfo)

.debug_sfnames
 *(.debug_sfnames)

.debug_aranges  0x0000000000000000      0x3d0
 *(.debug_aranges)
 .debug_aranges
                0x0000000000000000       0x28 /Users/ap/SDKs/nacl/pepper_31/toolchain/mac_x86_newlib/bin/../lib/gcc/x86_64-nacl/4.4.3/../../../../x86_64-nacl/lib/../lib32/crti.o
 .debug_aranges
                0x0000000000000028       0x20 /Users/ap/SDKs/nacl/pepper_31/toolchain/mac_x86_newlib/bin/../lib/gcc/x86_64-nacl/4.4.3/../../../../x86_64-nacl/lib/../lib32/libppapi_stub.a(plugin_main_irt.o)
 .debug_aranges
                0x0000000000000048       0x20 /Users/ap/SDKs/nacl/pepper_31/toolchain/mac_x86_newlib/bin/../lib/gcc/x86_64-nacl/4.4.3/../../../../x86_64-nacl/lib/../lib32/libppapi_stub.a(ppapi_plugin_main.o)
 .debug_aranges
                0x0000000000000068       0x20 /Users/ap/SDKs/nacl/pepper_31/toolchain/mac_x86_newlib/bin/../lib/gcc/x86_64-nacl/4.4.3/../../../../x86_64-nacl/lib/../lib32/libppapi_stub.a(ppapi_plugin_start.o)
 .debug_aranges
                0x0000000000000088       0x20 /Users/ap/SDKs/nacl/pepper_31/toolchain/mac_x86_newlib/bin/../lib/gcc/x86_64-nacl/4.4.3/../../../../x86_64-nacl/lib/../lib32/libppapi_stub.a(thread_creator.o)
 .debug_aranges
                0x00000000000000a8       0x20 /Users/ap/SDKs/nacl/pepper_31/toolchain/mac_x86_newlib/bin/../lib/gcc/x86_64-nacl/4.4.3/../../../../x86_64-nacl/lib/../lib32/libpthread.a(nc_thread.o)
 .debug_aranges
                0x00000000000000c8       0x20 /Users/ap/SDKs/nacl/pepper_31/toolchain/mac_x86_newlib/bin/../lib/gcc/x86_64-nacl/4.4.3/../../../../x86_64-nacl/lib/../lib32/libpthread.a(nc_condvar.o)
 .debug_aranges
                0x00000000000000e8       0x20 /Users/ap/SDKs/nacl/pepper_31/toolchain/mac_x86_newlib/bin/../lib/gcc/x86_64-nacl/4.4.3/../../../../x86_64-nacl/lib/../lib32/libpthread.a(dynamic_annotations.o)
 .debug_aranges
                0x0000000000000108       0x20 /Users/ap/SDKs/nacl/pepper_31/toolchain/mac_x86_newlib/bin/../lib/gcc/x86_64-nacl/4.4.3/../../../../x86_64-nacl/lib/../lib32/libpthread.a(nc_mutex.o)
 .debug_aranges
                0x0000000000000128       0x20 /Users/ap/SDKs/nacl/pepper_31/toolchain/mac_x86_newlib/bin/../lib/gcc/x86_64-nacl/4.4.3/../../../../x86_64-nacl/lib/../lib32/libpthread.a(nc_init_irt.o)
 .debug_aranges
                0x0000000000000148       0x20 /Users/ap/SDKs/nacl/pepper_31/toolchain/mac_x86_newlib/bin/../lib/gcc/x86_64-nacl/4.4.3/../../../../x86_64-nacl/lib/../lib32/libnacl.a(_exit.o)
 .debug_aranges
                0x0000000000000168       0x20 /Users/ap/SDKs/nacl/pepper_31/toolchain/mac_x86_newlib/bin/../lib/gcc/x86_64-nacl/4.4.3/../../../../x86_64-nacl/lib/../lib32/libnacl.a(start.o)
 .debug_aranges
                0x0000000000000188       0x20 /Users/ap/SDKs/nacl/pepper_31/toolchain/mac_x86_newlib/bin/../lib/gcc/x86_64-nacl/4.4.3/../../../../x86_64-nacl/lib/../lib32/libnacl.a(malloc.o)
 .debug_aranges
                0x00000000000001a8       0x20 /Users/ap/SDKs/nacl/pepper_31/toolchain/mac_x86_newlib/bin/../lib/gcc/x86_64-nacl/4.4.3/../../../../x86_64-nacl/lib/../lib32/libnacl.a(nacl_irt.o)
 .debug_aranges
                0x00000000000001c8       0x20 /Users/ap/SDKs/nacl/pepper_31/toolchain/mac_x86_newlib/bin/../lib/gcc/x86_64-nacl/4.4.3/../../../../x86_64-nacl/lib/../lib32/libnacl.a(pthread_initialize_minimal.o)
 .debug_aranges
                0x00000000000001e8       0x20 /Users/ap/SDKs/nacl/pepper_31/toolchain/mac_x86_newlib/bin/../lib/gcc/x86_64-nacl/4.4.3/../../../../x86_64-nacl/lib/../lib32/libnacl.a(nacl_read_tp.o)
 .debug_aranges
                0x0000000000000208       0x20 /Users/ap/SDKs/nacl/pepper_31/toolchain/mac_x86_newlib/bin/../lib/gcc/x86_64-nacl/4.4.3/../../../../x86_64-nacl/lib/../lib32/libnacl.a(mmap.o)
 .debug_aranges
                0x0000000000000228       0x20 /Users/ap/SDKs/nacl/pepper_31/toolchain/mac_x86_newlib/bin/../lib/gcc/x86_64-nacl/4.4.3/../../../../x86_64-nacl/lib/../lib32/libnacl.a(sched_yield.o)
 .debug_aranges
                0x0000000000000248       0x20 /Users/ap/SDKs/nacl/pepper_31/toolchain/mac_x86_newlib/bin/../lib/gcc/x86_64-nacl/4.4.3/../../../../x86_64-nacl/lib/../lib32/libnacl.a(munmap.o)
 .debug_aranges
                0x0000000000000268       0x20 /Users/ap/SDKs/nacl/pepper_31/toolchain/mac_x86_newlib/bin/../lib/gcc/x86_64-nacl/4.4.3/../../../../x86_64-nacl/lib/../lib32/libnacl.a(tls.o)
 .debug_aranges
                0x0000000000000288       0x20 /Users/ap/SDKs/nacl/pepper_31/toolchain/mac_x86_newlib/bin/../lib/gcc/x86_64-nacl/4.4.3/../../../../x86_64-nacl/lib/../lib32/libnacl.a(write.o)
 .debug_aranges
                0x00000000000002a8       0x20 /Users/ap/SDKs/nacl/pepper_31/toolchain/mac_x86_newlib/bin/../lib/gcc/x86_64-nacl/4.4.3/../../../../x86_64-nacl/lib/../lib32/libnacl.a(sysconf.o)
 .debug_aranges
                0x00000000000002c8       0x20 /Users/ap/SDKs/nacl/pepper_31/toolchain/mac_x86_newlib/bin/../lib/gcc/x86_64-nacl/4.4.3/../../../../x86_64-nacl/lib/../lib32/libnacl.a(nacl_tls_init.o)
 .debug_aranges
                0x00000000000002e8       0x20 /Users/ap/SDKs/nacl/pepper_31/toolchain/mac_x86_newlib/bin/../lib/gcc/x86_64-nacl/4.4.3/../../../../x86_64-nacl/lib/../lib32/libnacl.a(close.o)
 .debug_aranges
                0x0000000000000308       0x20 /Users/ap/SDKs/nacl/pepper_31/toolchain/mac_x86_newlib/bin/../lib/gcc/x86_64-nacl/4.4.3/../../../../x86_64-nacl/lib/../lib32/libnacl.a(fstat.o)
 .debug_aranges
                0x0000000000000328       0x20 /Users/ap/SDKs/nacl/pepper_31/toolchain/mac_x86_newlib/bin/../lib/gcc/x86_64-nacl/4.4.3/../../../../x86_64-nacl/lib/../lib32/libnacl.a(lseek.o)
 .debug_aranges
                0x0000000000000348       0x20 /Users/ap/SDKs/nacl/pepper_31/toolchain/mac_x86_newlib/bin/../lib/gcc/x86_64-nacl/4.4.3/../../../../x86_64-nacl/lib/../lib32/libnacl.a(read.o)
 .debug_aranges
                0x0000000000000368       0x20 /Users/ap/SDKs/nacl/pepper_31/toolchain/mac_x86_newlib/bin/../lib/gcc/x86_64-nacl/4.4.3/32/libgcc.a(_udivdi3.o)
 .debug_aranges
                0x0000000000000388       0x20 /Users/ap/SDKs/nacl/pepper_31/toolchain/mac_x86_newlib/bin/../lib/gcc/x86_64-nacl/4.4.3/32/libgcc.a(_umoddi3.o)
 .debug_aranges
                0x00000000000003a8       0x28 /Users/ap/SDKs/nacl/pepper_31/toolchain/mac_x86_newlib/bin/../lib/gcc/x86_64-nacl/4.4.3/../../../../x86_64-nacl/lib/../lib32/crtn.o

.debug_pubnames
                0x0000000000000000     0x1101
 *(.debug_pubnames)
 .debug_pubnames
                0x0000000000000000       0x1b /Users/ap/SDKs/nacl/pepper_31/toolchain/mac_x86_newlib/bin/../lib/gcc/x86_64-nacl/4.4.3/../../../../x86_64-nacl/lib/../lib32/libppapi_stub.a(plugin_main_irt.o)
 .debug_pubnames
                0x000000000000001b       0x26 /Users/ap/SDKs/nacl/pepper_31/toolchain/mac_x86_newlib/bin/../lib/gcc/x86_64-nacl/4.4.3/../../../../x86_64-nacl/lib/../lib32/libppapi_stub.a(ppapi_plugin_main.o)
 .debug_pubnames
                0x0000000000000041       0x27 /Users/ap/SDKs/nacl/pepper_31/toolchain/mac_x86_newlib/bin/../lib/gcc/x86_64-nacl/4.4.3/../../../../x86_64-nacl/lib/../lib32/libppapi_stub.a(ppapi_plugin_start.o)
 .debug_pubnames
                0x0000000000000068       0x35 /Users/ap/SDKs/nacl/pepper_31/toolchain/mac_x86_newlib/bin/../lib/gcc/x86_64-nacl/4.4.3/../../../../x86_64-nacl/lib/../lib32/libppapi_stub.a(thread_creator.o)
 .debug_pubnames
                0x000000000000009d      0x426 /Users/ap/SDKs/nacl/pepper_31/toolchain/mac_x86_newlib/bin/../lib/gcc/x86_64-nacl/4.4.3/../../../../x86_64-nacl/lib/../lib32/libpthread.a(nc_thread.o)
 .debug_pubnames
                0x00000000000004c3       0xa9 /Users/ap/SDKs/nacl/pepper_31/toolchain/mac_x86_newlib/bin/../lib/gcc/x86_64-nacl/4.4.3/../../../../x86_64-nacl/lib/../lib32/libpthread.a(nc_condvar.o)
 .debug_pubnames
                0x000000000000056c      0x4a6 /Users/ap/SDKs/nacl/pepper_31/toolchain/mac_x86_newlib/bin/../lib/gcc/x86_64-nacl/4.4.3/../../../../x86_64-nacl/lib/../lib32/libpthread.a(dynamic_annotations.o)
 .debug_pubnames
                0x0000000000000a12      0x12f /Users/ap/SDKs/nacl/pepper_31/toolchain/mac_x86_newlib/bin/../lib/gcc/x86_64-nacl/4.4.3/../../../../x86_64-nacl/lib/../lib32/libpthread.a(nc_mutex.o)
 .debug_pubnames
                0x0000000000000b41       0x73 /Users/ap/SDKs/nacl/pepper_31/toolchain/mac_x86_newlib/bin/../lib/gcc/x86_64-nacl/4.4.3/../../../../x86_64-nacl/lib/../lib32/libpthread.a(nc_init_irt.o)
 .debug_pubnames
                0x0000000000000bb4       0x1c /Users/ap/SDKs/nacl/pepper_31/toolchain/mac_x86_newlib/bin/../lib/gcc/x86_64-nacl/4.4.3/../../../../x86_64-nacl/lib/../lib32/libnacl.a(_exit.o)
 .debug_pubnames
                0x0000000000000bd0       0x41 /Users/ap/SDKs/nacl/pepper_31/toolchain/mac_x86_newlib/bin/../lib/gcc/x86_64-nacl/4.4.3/../../../../x86_64-nacl/lib/../lib32/libnacl.a(start.o)
 .debug_pubnames
                0x0000000000000c11      0x1b7 /Users/ap/SDKs/nacl/pepper_31/toolchain/mac_x86_newlib/bin/../lib/gcc/x86_64-nacl/4.4.3/../../../../x86_64-nacl/lib/../lib32/libnacl.a(malloc.o)
 .debug_pubnames
                0x0000000000000dc8      0x12a /Users/ap/SDKs/nacl/pepper_31/toolchain/mac_x86_newlib/bin/../lib/gcc/x86_64-nacl/4.4.3/../../../../x86_64-nacl/lib/../lib32/libnacl.a(nacl_irt.o)
 .debug_pubnames
                0x0000000000000ef2       0x33 /Users/ap/SDKs/nacl/pepper_31/toolchain/mac_x86_newlib/bin/../lib/gcc/x86_64-nacl/4.4.3/../../../../x86_64-nacl/lib/../lib32/libnacl.a(pthread_initialize_minimal.o)
 .debug_pubnames
                0x0000000000000f25       0x25 /Users/ap/SDKs/nacl/pepper_31/toolchain/mac_x86_newlib/bin/../lib/gcc/x86_64-nacl/4.4.3/../../../../x86_64-nacl/lib/../lib32/libnacl.a(nacl_read_tp.o)
 .debug_pubnames
                0x0000000000000f4a       0x1b /Users/ap/SDKs/nacl/pepper_31/toolchain/mac_x86_newlib/bin/../lib/gcc/x86_64-nacl/4.4.3/../../../../x86_64-nacl/lib/../lib32/libnacl.a(mmap.o)
 .debug_pubnames
                0x0000000000000f65       0x22 /Users/ap/SDKs/nacl/pepper_31/toolchain/mac_x86_newlib/bin/../lib/gcc/x86_64-nacl/4.4.3/../../../../x86_64-nacl/lib/../lib32/libnacl.a(sched_yield.o)
 .debug_pubnames
                0x0000000000000f87       0x1d /Users/ap/SDKs/nacl/pepper_31/toolchain/mac_x86_newlib/bin/../lib/gcc/x86_64-nacl/4.4.3/../../../../x86_64-nacl/lib/../lib32/libnacl.a(munmap.o)
 .debug_pubnames
                0x0000000000000fa4       0x50 /Users/ap/SDKs/nacl/pepper_31/toolchain/mac_x86_newlib/bin/../lib/gcc/x86_64-nacl/4.4.3/../../../../x86_64-nacl/lib/../lib32/libnacl.a(tls.o)
 .debug_pubnames
                0x0000000000000ff4       0x1c /Users/ap/SDKs/nacl/pepper_31/toolchain/mac_x86_newlib/bin/../lib/gcc/x86_64-nacl/4.4.3/../../../../x86_64-nacl/lib/../lib32/libnacl.a(write.o)
 .debug_pubnames
                0x0000000000001010       0x1e /Users/ap/SDKs/nacl/pepper_31/toolchain/mac_x86_newlib/bin/../lib/gcc/x86_64-nacl/4.4.3/../../../../x86_64-nacl/lib/../lib32/libnacl.a(sysconf.o)
 .debug_pubnames
                0x000000000000102e       0x24 /Users/ap/SDKs/nacl/pepper_31/toolchain/mac_x86_newlib/bin/../lib/gcc/x86_64-nacl/4.4.3/../../../../x86_64-nacl/lib/../lib32/libnacl.a(nacl_tls_init.o)
 .debug_pubnames
                0x0000000000001052       0x1c /Users/ap/SDKs/nacl/pepper_31/toolchain/mac_x86_newlib/bin/../lib/gcc/x86_64-nacl/4.4.3/../../../../x86_64-nacl/lib/../lib32/libnacl.a(close.o)
 .debug_pubnames
                0x000000000000106e       0x1c /Users/ap/SDKs/nacl/pepper_31/toolchain/mac_x86_newlib/bin/../lib/gcc/x86_64-nacl/4.4.3/../../../../x86_64-nacl/lib/../lib32/libnacl.a(fstat.o)
 .debug_pubnames
                0x000000000000108a       0x1c /Users/ap/SDKs/nacl/pepper_31/toolchain/mac_x86_newlib/bin/../lib/gcc/x86_64-nacl/4.4.3/../../../../x86_64-nacl/lib/../lib32/libnacl.a(lseek.o)
 .debug_pubnames
                0x00000000000010a6       0x1b /Users/ap/SDKs/nacl/pepper_31/toolchain/mac_x86_newlib/bin/../lib/gcc/x86_64-nacl/4.4.3/../../../../x86_64-nacl/lib/../lib32/libnacl.a(read.o)
 .debug_pubnames
                0x00000000000010c1       0x20 /Users/ap/SDKs/nacl/pepper_31/toolchain/mac_x86_newlib/bin/../lib/gcc/x86_64-nacl/4.4.3/32/libgcc.a(_udivdi3.o)
 .debug_pubnames
                0x00000000000010e1       0x20 /Users/ap/SDKs/nacl/pepper_31/toolchain/mac_x86_newlib/bin/../lib/gcc/x86_64-nacl/4.4.3/32/libgcc.a(_umoddi3.o)

.debug_info     0x0000000000000000     0xafbb
 *(.debug_info .gnu.linkonce.wi.*)
 .debug_info    0x0000000000000000       0x8b /Users/ap/SDKs/nacl/pepper_31/toolchain/mac_x86_newlib/bin/../lib/gcc/x86_64-nacl/4.4.3/../../../../x86_64-nacl/lib/../lib32/crti.o
 .debug_info    0x000000000000008b       0x8f /Users/ap/SDKs/nacl/pepper_31/toolchain/mac_x86_newlib/bin/../lib/gcc/x86_64-nacl/4.4.3/../../../../x86_64-nacl/lib/../lib32/libppapi_stub.a(plugin_main_irt.o)
 .debug_info    0x000000000000011a      0x14a /Users/ap/SDKs/nacl/pepper_31/toolchain/mac_x86_newlib/bin/../lib/gcc/x86_64-nacl/4.4.3/../../../../x86_64-nacl/lib/../lib32/libppapi_stub.a(ppapi_plugin_main.o)
 .debug_info    0x0000000000000264      0x3d1 /Users/ap/SDKs/nacl/pepper_31/toolchain/mac_x86_newlib/bin/../lib/gcc/x86_64-nacl/4.4.3/../../../../x86_64-nacl/lib/../lib32/libppapi_stub.a(ppapi_plugin_start.o)
 .debug_info    0x0000000000000635      0x2d4 /Users/ap/SDKs/nacl/pepper_31/toolchain/mac_x86_newlib/bin/../lib/gcc/x86_64-nacl/4.4.3/../../../../x86_64-nacl/lib/../lib32/libppapi_stub.a(thread_creator.o)
 .debug_info    0x0000000000000909     0x138e /Users/ap/SDKs/nacl/pepper_31/toolchain/mac_x86_newlib/bin/../lib/gcc/x86_64-nacl/4.4.3/../../../../x86_64-nacl/lib/../lib32/libpthread.a(nc_thread.o)
 .debug_info    0x0000000000001c97      0x59f /Users/ap/SDKs/nacl/pepper_31/toolchain/mac_x86_newlib/bin/../lib/gcc/x86_64-nacl/4.4.3/../../../../x86_64-nacl/lib/../lib32/libpthread.a(nc_condvar.o)
 .debug_info    0x0000000000002236      0xaf8 /Users/ap/SDKs/nacl/pepper_31/toolchain/mac_x86_newlib/bin/../lib/gcc/x86_64-nacl/4.4.3/../../../../x86_64-nacl/lib/../lib32/libpthread.a(dynamic_annotations.o)
 .debug_info    0x0000000000002d2e      0x7d2 /Users/ap/SDKs/nacl/pepper_31/toolchain/mac_x86_newlib/bin/../lib/gcc/x86_64-nacl/4.4.3/../../../../x86_64-nacl/lib/../lib32/libpthread.a(nc_mutex.o)
 .debug_info    0x0000000000003500      0x252 /Users/ap/SDKs/nacl/pepper_31/toolchain/mac_x86_newlib/bin/../lib/gcc/x86_64-nacl/4.4.3/../../../../x86_64-nacl/lib/../lib32/libpthread.a(nc_init_irt.o)
 .debug_info    0x0000000000003752      0x231 /Users/ap/SDKs/nacl/pepper_31/toolchain/mac_x86_newlib/bin/../lib/gcc/x86_64-nacl/4.4.3/../../../../x86_64-nacl/lib/../lib32/libnacl.a(_exit.o)
 .debug_info    0x0000000000003983      0x316 /Users/ap/SDKs/nacl/pepper_31/toolchain/mac_x86_newlib/bin/../lib/gcc/x86_64-nacl/4.4.3/../../../../x86_64-nacl/lib/../lib32/libnacl.a(start.o)
 .debug_info    0x0000000000003c99     0x3f80 /Users/ap/SDKs/nacl/pepper_31/toolchain/mac_x86_newlib/bin/../lib/gcc/x86_64-nacl/4.4.3/../../../../x86_64-nacl/lib/../lib32/libnacl.a(malloc.o)
 .debug_info    0x0000000000007c19      0xca2 /Users/ap/SDKs/nacl/pepper_31/toolchain/mac_x86_newlib/bin/../lib/gcc/x86_64-nacl/4.4.3/../../../../x86_64-nacl/lib/../lib32/libnacl.a(nacl_irt.o)
 .debug_info    0x00000000000088bb       0xd4 /Users/ap/SDKs/nacl/pepper_31/toolchain/mac_x86_newlib/bin/../lib/gcc/x86_64-nacl/4.4.3/../../../../x86_64-nacl/lib/../lib32/libnacl.a(pthread_initialize_minimal.o)
 .debug_info    0x000000000000898f       0xa0 /Users/ap/SDKs/nacl/pepper_31/toolchain/mac_x86_newlib/bin/../lib/gcc/x86_64-nacl/4.4.3/../../../../x86_64-nacl/lib/../lib32/libnacl.a(nacl_read_tp.o)
 .debug_info    0x0000000000008a2f      0x1da /Users/ap/SDKs/nacl/pepper_31/toolchain/mac_x86_newlib/bin/../lib/gcc/x86_64-nacl/4.4.3/../../../../x86_64-nacl/lib/../lib32/libnacl.a(mmap.o)
 .debug_info    0x0000000000008c09      0x236 /Users/ap/SDKs/nacl/pepper_31/toolchain/mac_x86_newlib/bin/../lib/gcc/x86_64-nacl/4.4.3/../../../../x86_64-nacl/lib/../lib32/libnacl.a(sched_yield.o)
 .debug_info    0x0000000000008e3f      0x1a1 /Users/ap/SDKs/nacl/pepper_31/toolchain/mac_x86_newlib/bin/../lib/gcc/x86_64-nacl/4.4.3/../../../../x86_64-nacl/lib/../lib32/libnacl.a(munmap.o)
 .debug_info    0x0000000000008fe0      0x72f /Users/ap/SDKs/nacl/pepper_31/toolchain/mac_x86_newlib/bin/../lib/gcc/x86_64-nacl/4.4.3/../../../../x86_64-nacl/lib/../lib32/libnacl.a(tls.o)
 .debug_info    0x000000000000970f      0x2c0 /Users/ap/SDKs/nacl/pepper_31/toolchain/mac_x86_newlib/bin/../lib/gcc/x86_64-nacl/4.4.3/../../../../x86_64-nacl/lib/../lib32/libnacl.a(write.o)
 .debug_info    0x00000000000099cf      0x253 /Users/ap/SDKs/nacl/pepper_31/toolchain/mac_x86_newlib/bin/../lib/gcc/x86_64-nacl/4.4.3/../../../../x86_64-nacl/lib/../lib32/libnacl.a(sysconf.o)
 .debug_info    0x0000000000009c22       0xff /Users/ap/SDKs/nacl/pepper_31/toolchain/mac_x86_newlib/bin/../lib/gcc/x86_64-nacl/4.4.3/../../../../x86_64-nacl/lib/../lib32/libnacl.a(nacl_tls_init.o)
 .debug_info    0x0000000000009d21      0x295 /Users/ap/SDKs/nacl/pepper_31/toolchain/mac_x86_newlib/bin/../lib/gcc/x86_64-nacl/4.4.3/../../../../x86_64-nacl/lib/../lib32/libnacl.a(close.o)
 .debug_info    0x0000000000009fb6      0x464 /Users/ap/SDKs/nacl/pepper_31/toolchain/mac_x86_newlib/bin/../lib/gcc/x86_64-nacl/4.4.3/../../../../x86_64-nacl/lib/../lib32/libnacl.a(fstat.o)
 .debug_info    0x000000000000a41a      0x2c0 /Users/ap/SDKs/nacl/pepper_31/toolchain/mac_x86_newlib/bin/../lib/gcc/x86_64-nacl/4.4.3/../../../../x86_64-nacl/lib/../lib32/libnacl.a(lseek.o)
 .debug_info    0x000000000000a6da      0x2c0 /Users/ap/SDKs/nacl/pepper_31/toolchain/mac_x86_newlib/bin/../lib/gcc/x86_64-nacl/4.4.3/../../../../x86_64-nacl/lib/../lib32/libnacl.a(read.o)
 .debug_info    0x000000000000a99a      0x2c6 /Users/ap/SDKs/nacl/pepper_31/toolchain/mac_x86_newlib/bin/../lib/gcc/x86_64-nacl/4.4.3/32/libgcc.a(_udivdi3.o)
 .debug_info    0x000000000000ac60      0x2d0 /Users/ap/SDKs/nacl/pepper_31/toolchain/mac_x86_newlib/bin/../lib/gcc/x86_64-nacl/4.4.3/32/libgcc.a(_umoddi3.o)
 .debug_info    0x000000000000af30       0x8b /Users/ap/SDKs/nacl/pepper_31/toolchain/mac_x86_newlib/bin/../lib/gcc/x86_64-nacl/4.4.3/../../../../x86_64-nacl/lib/../lib32/crtn.o

.debug_abbrev   0x0000000000000000     0x24f0
 *(.debug_abbrev)
 .debug_abbrev  0x0000000000000000       0x12 /Users/ap/SDKs/nacl/pepper_31/toolchain/mac_x86_newlib/bin/../lib/gcc/x86_64-nacl/4.4.3/../../../../x86_64-nacl/lib/../lib32/crti.o
 .debug_abbrev  0x0000000000000012       0x4a /Users/ap/SDKs/nacl/pepper_31/toolchain/mac_x86_newlib/bin/../lib/gcc/x86_64-nacl/4.4.3/../../../../x86_64-nacl/lib/../lib32/libppapi_stub.a(plugin_main_irt.o)
 .debug_abbrev  0x000000000000005c       0xc0 /Users/ap/SDKs/nacl/pepper_31/toolchain/mac_x86_newlib/bin/../lib/gcc/x86_64-nacl/4.4.3/../../../../x86_64-nacl/lib/../lib32/libppapi_stub.a(ppapi_plugin_main.o)
 .debug_abbrev  0x000000000000011c      0x1d0 /Users/ap/SDKs/nacl/pepper_31/toolchain/mac_x86_newlib/bin/../lib/gcc/x86_64-nacl/4.4.3/../../../../x86_64-nacl/lib/../lib32/libppapi_stub.a(ppapi_plugin_start.o)
 .debug_abbrev  0x00000000000002ec      0x12c /Users/ap/SDKs/nacl/pepper_31/toolchain/mac_x86_newlib/bin/../lib/gcc/x86_64-nacl/4.4.3/../../../../x86_64-nacl/lib/../lib32/libppapi_stub.a(thread_creator.o)
 .debug_abbrev  0x0000000000000418      0x438 /Users/ap/SDKs/nacl/pepper_31/toolchain/mac_x86_newlib/bin/../lib/gcc/x86_64-nacl/4.4.3/../../../../x86_64-nacl/lib/../lib32/libpthread.a(nc_thread.o)
 .debug_abbrev  0x0000000000000850      0x19c /Users/ap/SDKs/nacl/pepper_31/toolchain/mac_x86_newlib/bin/../lib/gcc/x86_64-nacl/4.4.3/../../../../x86_64-nacl/lib/../lib32/libpthread.a(nc_condvar.o)
 .debug_abbrev  0x00000000000009ec       0xfc /Users/ap/SDKs/nacl/pepper_31/toolchain/mac_x86_newlib/bin/../lib/gcc/x86_64-nacl/4.4.3/../../../../x86_64-nacl/lib/../lib32/libpthread.a(dynamic_annotations.o)
 .debug_abbrev  0x0000000000000ae8      0x222 /Users/ap/SDKs/nacl/pepper_31/toolchain/mac_x86_newlib/bin/../lib/gcc/x86_64-nacl/4.4.3/../../../../x86_64-nacl/lib/../lib32/libpthread.a(nc_mutex.o)
 .debug_abbrev  0x0000000000000d0a      0x102 /Users/ap/SDKs/nacl/pepper_31/toolchain/mac_x86_newlib/bin/../lib/gcc/x86_64-nacl/4.4.3/../../../../x86_64-nacl/lib/../lib32/libpthread.a(nc_init_irt.o)
 .debug_abbrev  0x0000000000000e0c       0xcb /Users/ap/SDKs/nacl/pepper_31/toolchain/mac_x86_newlib/bin/../lib/gcc/x86_64-nacl/4.4.3/../../../../x86_64-nacl/lib/../lib32/libnacl.a(_exit.o)
 .debug_abbrev  0x0000000000000ed7      0x197 /Users/ap/SDKs/nacl/pepper_31/toolchain/mac_x86_newlib/bin/../lib/gcc/x86_64-nacl/4.4.3/../../../../x86_64-nacl/lib/../lib32/libnacl.a(start.o)
 .debug_abbrev  0x000000000000106e      0x3d8 /Users/ap/SDKs/nacl/pepper_31/toolchain/mac_x86_newlib/bin/../lib/gcc/x86_64-nacl/4.4.3/../../../../x86_64-nacl/lib/../lib32/libnacl.a(malloc.o)
 .debug_abbrev  0x0000000000001446      0x265 /Users/ap/SDKs/nacl/pepper_31/toolchain/mac_x86_newlib/bin/../lib/gcc/x86_64-nacl/4.4.3/../../../../x86_64-nacl/lib/../lib32/libnacl.a(nacl_irt.o)
 .debug_abbrev  0x00000000000016ab       0x89 /Users/ap/SDKs/nacl/pepper_31/toolchain/mac_x86_newlib/bin/../lib/gcc/x86_64-nacl/4.4.3/../../../../x86_64-nacl/lib/../lib32/libnacl.a(pthread_initialize_minimal.o)
 .debug_abbrev  0x0000000000001734       0x60 /Users/ap/SDKs/nacl/pepper_31/toolchain/mac_x86_newlib/bin/../lib/gcc/x86_64-nacl/4.4.3/../../../../x86_64-nacl/lib/../lib32/libnacl.a(nacl_read_tp.o)
 .debug_abbrev  0x0000000000001794       0xd7 /Users/ap/SDKs/nacl/pepper_31/toolchain/mac_x86_newlib/bin/../lib/gcc/x86_64-nacl/4.4.3/../../../../x86_64-nacl/lib/../lib32/libnacl.a(mmap.o)
 .debug_abbrev  0x000000000000186b       0xcd /Users/ap/SDKs/nacl/pepper_31/toolchain/mac_x86_newlib/bin/../lib/gcc/x86_64-nacl/4.4.3/../../../../x86_64-nacl/lib/../lib32/libnacl.a(sched_yield.o)
 .debug_abbrev  0x0000000000001938       0xc8 /Users/ap/SDKs/nacl/pepper_31/toolchain/mac_x86_newlib/bin/../lib/gcc/x86_64-nacl/4.4.3/../../../../x86_64-nacl/lib/../lib32/libnacl.a(munmap.o)
 .debug_abbrev  0x0000000000001a00      0x243 /Users/ap/SDKs/nacl/pepper_31/toolchain/mac_x86_newlib/bin/../lib/gcc/x86_64-nacl/4.4.3/../../../../x86_64-nacl/lib/../lib32/libnacl.a(tls.o)
 .debug_abbrev  0x0000000000001c43       0xf4 /Users/ap/SDKs/nacl/pepper_31/toolchain/mac_x86_newlib/bin/../lib/gcc/x86_64-nacl/4.4.3/../../../../x86_64-nacl/lib/../lib32/libnacl.a(write.o)
 .debug_abbrev  0x0000000000001d37       0xdc /Users/ap/SDKs/nacl/pepper_31/toolchain/mac_x86_newlib/bin/../lib/gcc/x86_64-nacl/4.4.3/../../../../x86_64-nacl/lib/../lib32/libnacl.a(sysconf.o)
 .debug_abbrev  0x0000000000001e13       0xb5 /Users/ap/SDKs/nacl/pepper_31/toolchain/mac_x86_newlib/bin/../lib/gcc/x86_64-nacl/4.4.3/../../../../x86_64-nacl/lib/../lib32/libnacl.a(nacl_tls_init.o)
 .debug_abbrev  0x0000000000001ec8       0xe5 /Users/ap/SDKs/nacl/pepper_31/toolchain/mac_x86_newlib/bin/../lib/gcc/x86_64-nacl/4.4.3/../../../../x86_64-nacl/lib/../lib32/libnacl.a(close.o)
 .debug_abbrev  0x0000000000001fad       0xe5 /Users/ap/SDKs/nacl/pepper_31/toolchain/mac_x86_newlib/bin/../lib/gcc/x86_64-nacl/4.4.3/../../../../x86_64-nacl/lib/../lib32/libnacl.a(fstat.o)
 .debug_abbrev  0x0000000000002092       0xe5 /Users/ap/SDKs/nacl/pepper_31/toolchain/mac_x86_newlib/bin/../lib/gcc/x86_64-nacl/4.4.3/../../../../x86_64-nacl/lib/../lib32/libnacl.a(lseek.o)
 .debug_abbrev  0x0000000000002177       0xf4 /Users/ap/SDKs/nacl/pepper_31/toolchain/mac_x86_newlib/bin/../lib/gcc/x86_64-nacl/4.4.3/../../../../x86_64-nacl/lib/../lib32/libnacl.a(read.o)
 .debug_abbrev  0x000000000000226b      0x132 /Users/ap/SDKs/nacl/pepper_31/toolchain/mac_x86_newlib/bin/../lib/gcc/x86_64-nacl/4.4.3/32/libgcc.a(_udivdi3.o)
 .debug_abbrev  0x000000000000239d      0x141 /Users/ap/SDKs/nacl/pepper_31/toolchain/mac_x86_newlib/bin/../lib/gcc/x86_64-nacl/4.4.3/32/libgcc.a(_umoddi3.o)
 .debug_abbrev  0x00000000000024de       0x12 /Users/ap/SDKs/nacl/pepper_31/toolchain/mac_x86_newlib/bin/../lib/gcc/x86_64-nacl/4.4.3/../../../../x86_64-nacl/lib/../lib32/crtn.o

.debug_line     0x0000000000000000     0x5260
 *(.debug_line)
 .debug_line    0x0000000000000000       0x62 /Users/ap/SDKs/nacl/pepper_31/toolchain/mac_x86_newlib/bin/../lib/gcc/x86_64-nacl/4.4.3/../../../../x86_64-nacl/lib/../lib32/crti.o
 .debug_line    0x0000000000000062       0x44 /Users/ap/SDKs/nacl/pepper_31/toolchain/mac_x86_newlib/bin/../lib/gcc/x86_64-nacl/4.4.3/../../../../x86_64-nacl/lib/../lib32/libppapi_stub.a(plugin_main_irt.o)
 .debug_line    0x00000000000000a6      0x16d /Users/ap/SDKs/nacl/pepper_31/toolchain/mac_x86_newlib/bin/../lib/gcc/x86_64-nacl/4.4.3/../../../../x86_64-nacl/lib/../lib32/libppapi_stub.a(ppapi_plugin_main.o)
 .debug_line    0x0000000000000213      0x330 /Users/ap/SDKs/nacl/pepper_31/toolchain/mac_x86_newlib/bin/../lib/gcc/x86_64-nacl/4.4.3/../../../../x86_64-nacl/lib/../lib32/libppapi_stub.a(ppapi_plugin_start.o)
 .debug_line    0x0000000000000543      0x182 /Users/ap/SDKs/nacl/pepper_31/toolchain/mac_x86_newlib/bin/../lib/gcc/x86_64-nacl/4.4.3/../../../../x86_64-nacl/lib/../lib32/libppapi_stub.a(thread_creator.o)
 .debug_line    0x00000000000006c5      0x6ef /Users/ap/SDKs/nacl/pepper_31/toolchain/mac_x86_newlib/bin/../lib/gcc/x86_64-nacl/4.4.3/../../../../x86_64-nacl/lib/../lib32/libpthread.a(nc_thread.o)
 .debug_line    0x0000000000000db4      0x28b /Users/ap/SDKs/nacl/pepper_31/toolchain/mac_x86_newlib/bin/../lib/gcc/x86_64-nacl/4.4.3/../../../../x86_64-nacl/lib/../lib32/libpthread.a(nc_condvar.o)
 .debug_line    0x000000000000103f       0xd3 /Users/ap/SDKs/nacl/pepper_31/toolchain/mac_x86_newlib/bin/../lib/gcc/x86_64-nacl/4.4.3/../../../../x86_64-nacl/lib/../lib32/libpthread.a(dynamic_annotations.o)
 .debug_line    0x0000000000001112      0x332 /Users/ap/SDKs/nacl/pepper_31/toolchain/mac_x86_newlib/bin/../lib/gcc/x86_64-nacl/4.4.3/../../../../x86_64-nacl/lib/../lib32/libpthread.a(nc_mutex.o)
 .debug_line    0x0000000000001444      0x1fb /Users/ap/SDKs/nacl/pepper_31/toolchain/mac_x86_newlib/bin/../lib/gcc/x86_64-nacl/4.4.3/../../../../x86_64-nacl/lib/../lib32/libpthread.a(nc_init_irt.o)
 .debug_line    0x000000000000163f      0x2f9 /Users/ap/SDKs/nacl/pepper_31/toolchain/mac_x86_newlib/bin/../lib/gcc/x86_64-nacl/4.4.3/../../../../x86_64-nacl/lib/../lib32/libnacl.a(_exit.o)
 .debug_line    0x0000000000001938      0x258 /Users/ap/SDKs/nacl/pepper_31/toolchain/mac_x86_newlib/bin/../lib/gcc/x86_64-nacl/4.4.3/../../../../x86_64-nacl/lib/../lib32/libnacl.a(start.o)
 .debug_line    0x0000000000001b90      0xc5b /Users/ap/SDKs/nacl/pepper_31/toolchain/mac_x86_newlib/bin/../lib/gcc/x86_64-nacl/4.4.3/../../../../x86_64-nacl/lib/../lib32/libnacl.a(malloc.o)
 .debug_line    0x00000000000027eb      0x422 /Users/ap/SDKs/nacl/pepper_31/toolchain/mac_x86_newlib/bin/../lib/gcc/x86_64-nacl/4.4.3/../../../../x86_64-nacl/lib/../lib32/libnacl.a(nacl_irt.o)
 .debug_line    0x0000000000002c0d      0x100 /Users/ap/SDKs/nacl/pepper_31/toolchain/mac_x86_newlib/bin/../lib/gcc/x86_64-nacl/4.4.3/../../../../x86_64-nacl/lib/../lib32/libnacl.a(pthread_initialize_minimal.o)
 .debug_line    0x0000000000002d0d       0x43 /Users/ap/SDKs/nacl/pepper_31/toolchain/mac_x86_newlib/bin/../lib/gcc/x86_64-nacl/4.4.3/../../../../x86_64-nacl/lib/../lib32/libnacl.a(nacl_read_tp.o)
 .debug_line    0x0000000000002d50      0x39a /Users/ap/SDKs/nacl/pepper_31/toolchain/mac_x86_newlib/bin/../lib/gcc/x86_64-nacl/4.4.3/../../../../x86_64-nacl/lib/../lib32/libnacl.a(mmap.o)
 .debug_line    0x00000000000030ea      0x307 /Users/ap/SDKs/nacl/pepper_31/toolchain/mac_x86_newlib/bin/../lib/gcc/x86_64-nacl/4.4.3/../../../../x86_64-nacl/lib/../lib32/libnacl.a(sched_yield.o)
 .debug_line    0x00000000000033f1      0x399 /Users/ap/SDKs/nacl/pepper_31/toolchain/mac_x86_newlib/bin/../lib/gcc/x86_64-nacl/4.4.3/../../../../x86_64-nacl/lib/../lib32/libnacl.a(munmap.o)
 .debug_line    0x000000000000378a      0x296 /Users/ap/SDKs/nacl/pepper_31/toolchain/mac_x86_newlib/bin/../lib/gcc/x86_64-nacl/4.4.3/../../../../x86_64-nacl/lib/../lib32/libnacl.a(tls.o)
 .debug_line    0x0000000000003a20      0x39c /Users/ap/SDKs/nacl/pepper_31/toolchain/mac_x86_newlib/bin/../lib/gcc/x86_64-nacl/4.4.3/../../../../x86_64-nacl/lib/../lib32/libnacl.a(write.o)
 .debug_line    0x0000000000003dbc      0x305 /Users/ap/SDKs/nacl/pepper_31/toolchain/mac_x86_newlib/bin/../lib/gcc/x86_64-nacl/4.4.3/../../../../x86_64-nacl/lib/../lib32/libnacl.a(sysconf.o)
 .debug_line    0x00000000000040c1       0xb2 /Users/ap/SDKs/nacl/pepper_31/toolchain/mac_x86_newlib/bin/../lib/gcc/x86_64-nacl/4.4.3/../../../../x86_64-nacl/lib/../lib32/libnacl.a(nacl_tls_init.o)
 .debug_line    0x0000000000004173      0x39a /Users/ap/SDKs/nacl/pepper_31/toolchain/mac_x86_newlib/bin/../lib/gcc/x86_64-nacl/4.4.3/../../../../x86_64-nacl/lib/../lib32/libnacl.a(close.o)
 .debug_line    0x000000000000450d      0x398 /Users/ap/SDKs/nacl/pepper_31/toolchain/mac_x86_newlib/bin/../lib/gcc/x86_64-nacl/4.4.3/../../../../x86_64-nacl/lib/../lib32/libnacl.a(fstat.o)
 .debug_line    0x00000000000048a5      0x39c /Users/ap/SDKs/nacl/pepper_31/toolchain/mac_x86_newlib/bin/../lib/gcc/x86_64-nacl/4.4.3/../../../../x86_64-nacl/lib/../lib32/libnacl.a(lseek.o)
 .debug_line    0x0000000000004c41      0x39b /Users/ap/SDKs/nacl/pepper_31/toolchain/mac_x86_newlib/bin/../lib/gcc/x86_64-nacl/4.4.3/../../../../x86_64-nacl/lib/../lib32/libnacl.a(read.o)
 .debug_line    0x0000000000004fdc      0x109 /Users/ap/SDKs/nacl/pepper_31/toolchain/mac_x86_newlib/bin/../lib/gcc/x86_64-nacl/4.4.3/32/libgcc.a(_udivdi3.o)
 .debug_line    0x00000000000050e5      0x119 /Users/ap/SDKs/nacl/pepper_31/toolchain/mac_x86_newlib/bin/../lib/gcc/x86_64-nacl/4.4.3/32/libgcc.a(_umoddi3.o)
 .debug_line    0x00000000000051fe       0x62 /Users/ap/SDKs/nacl/pepper_31/toolchain/mac_x86_newlib/bin/../lib/gcc/x86_64-nacl/4.4.3/../../../../x86_64-nacl/lib/../lib32/crtn.o

.debug_frame
 *(.debug_frame)

.debug_str      0x0000000000000000     0x2839
 *(.debug_str)
 .debug_str     0x0000000000000000      0x12a /Users/ap/SDKs/nacl/pepper_31/toolchain/mac_x86_newlib/bin/../lib/gcc/x86_64-nacl/4.4.3/../../../../x86_64-nacl/lib/../lib32/libppapi_stub.a(plugin_main_irt.o)
                                        0x163 (size before relaxing)
 .debug_str     0x000000000000012a       0xa4 /Users/ap/SDKs/nacl/pepper_31/toolchain/mac_x86_newlib/bin/../lib/gcc/x86_64-nacl/4.4.3/../../../../x86_64-nacl/lib/../lib32/libppapi_stub.a(ppapi_plugin_main.o)
                                        0x1e6 (size before relaxing)
 .debug_str     0x00000000000001ce      0x100 /Users/ap/SDKs/nacl/pepper_31/toolchain/mac_x86_newlib/bin/../lib/gcc/x86_64-nacl/4.4.3/../../../../x86_64-nacl/lib/../lib32/libppapi_stub.a(ppapi_plugin_start.o)
                                        0x2ee (size before relaxing)
 .debug_str     0x00000000000002ce       0x64 /Users/ap/SDKs/nacl/pepper_31/toolchain/mac_x86_newlib/bin/../lib/gcc/x86_64-nacl/4.4.3/../../../../x86_64-nacl/lib/../lib32/libppapi_stub.a(thread_creator.o)
                                        0x29d (size before relaxing)
 .debug_str     0x0000000000000332      0x955 /Users/ap/SDKs/nacl/pepper_31/toolchain/mac_x86_newlib/bin/../lib/gcc/x86_64-nacl/4.4.3/../../../../x86_64-nacl/lib/../lib32/libpthread.a(nc_thread.o)
                                        0xb3b (size before relaxing)
 .debug_str     0x0000000000000c87      0x133 /Users/ap/SDKs/nacl/pepper_31/toolchain/mac_x86_newlib/bin/../lib/gcc/x86_64-nacl/4.4.3/../../../../x86_64-nacl/lib/../lib32/libpthread.a(nc_condvar.o)
                                        0x460 (size before relaxing)
 .debug_str     0x0000000000000dba      0x499 /Users/ap/SDKs/nacl/pepper_31/toolchain/mac_x86_newlib/bin/../lib/gcc/x86_64-nacl/4.4.3/../../../../x86_64-nacl/lib/../lib32/libpthread.a(dynamic_annotations.o)
                                        0x61e (size before relaxing)
 .debug_str     0x0000000000001253      0x1b2 /Users/ap/SDKs/nacl/pepper_31/toolchain/mac_x86_newlib/bin/../lib/gcc/x86_64-nacl/4.4.3/../../../../x86_64-nacl/lib/../lib32/libpthread.a(nc_mutex.o)
                                        0x620 (size before relaxing)
 .debug_str     0x0000000000001405       0x50 /Users/ap/SDKs/nacl/pepper_31/toolchain/mac_x86_newlib/bin/../lib/gcc/x86_64-nacl/4.4.3/../../../../x86_64-nacl/lib/../lib32/libpthread.a(nc_init_irt.o)
                                        0x246 (size before relaxing)
 .debug_str     0x0000000000001455       0xb1 /Users/ap/SDKs/nacl/pepper_31/toolchain/mac_x86_newlib/bin/../lib/gcc/x86_64-nacl/4.4.3/../../../../x86_64-nacl/lib/../lib32/libnacl.a(_exit.o)
                                        0x1f2 (size before relaxing)
 .debug_str     0x0000000000001506       0xf9 /Users/ap/SDKs/nacl/pepper_31/toolchain/mac_x86_newlib/bin/../lib/gcc/x86_64-nacl/4.4.3/../../../../x86_64-nacl/lib/../lib32/libnacl.a(start.o)
                                        0x2a3 (size before relaxing)
 .debug_str     0x00000000000015ff      0x9df /Users/ap/SDKs/nacl/pepper_31/toolchain/mac_x86_newlib/bin/../lib/gcc/x86_64-nacl/4.4.3/../../../../x86_64-nacl/lib/../lib32/libnacl.a(malloc.o)
                                        0xcd8 (size before relaxing)
 .debug_str     0x0000000000001fde      0x283 /Users/ap/SDKs/nacl/pepper_31/toolchain/mac_x86_newlib/bin/../lib/gcc/x86_64-nacl/4.4.3/../../../../x86_64-nacl/lib/../lib32/libnacl.a(nacl_irt.o)
                                        0x589 (size before relaxing)
 .debug_str     0x0000000000002261       0x3a /Users/ap/SDKs/nacl/pepper_31/toolchain/mac_x86_newlib/bin/../lib/gcc/x86_64-nacl/4.4.3/../../../../x86_64-nacl/lib/../lib32/libnacl.a(pthread_initialize_minimal.o)
                                        0x1a8 (size before relaxing)
 .debug_str     0x000000000000229b       0x1e /Users/ap/SDKs/nacl/pepper_31/toolchain/mac_x86_newlib/bin/../lib/gcc/x86_64-nacl/4.4.3/../../../../x86_64-nacl/lib/../lib32/libnacl.a(nacl_read_tp.o)
                                        0x167 (size before relaxing)
 .debug_str     0x00000000000022b9       0x13 /Users/ap/SDKs/nacl/pepper_31/toolchain/mac_x86_newlib/bin/../lib/gcc/x86_64-nacl/4.4.3/../../../../x86_64-nacl/lib/../lib32/libnacl.a(mmap.o)
                                        0x1c9 (size before relaxing)
 .debug_str     0x00000000000022cc        0xe /Users/ap/SDKs/nacl/pepper_31/toolchain/mac_x86_newlib/bin/../lib/gcc/x86_64-nacl/4.4.3/../../../../x86_64-nacl/lib/../lib32/libnacl.a(sched_yield.o)
                                        0x1f1 (size before relaxing)
 .debug_str     0x00000000000022da        0x9 /Users/ap/SDKs/nacl/pepper_31/toolchain/mac_x86_newlib/bin/../lib/gcc/x86_64-nacl/4.4.3/../../../../x86_64-nacl/lib/../lib32/libnacl.a(munmap.o)
                                        0x1b4 (size before relaxing)
 .debug_str     0x00000000000022e3      0x2e2 /Users/ap/SDKs/nacl/pepper_31/toolchain/mac_x86_newlib/bin/../lib/gcc/x86_64-nacl/4.4.3/../../../../x86_64-nacl/lib/../lib32/libnacl.a(tls.o)
                                        0x4ab (size before relaxing)
 .debug_str     0x00000000000025c5        0x8 /Users/ap/SDKs/nacl/pepper_31/toolchain/mac_x86_newlib/bin/../lib/gcc/x86_64-nacl/4.4.3/../../../../x86_64-nacl/lib/../lib32/libnacl.a(write.o)
                                        0x1d5 (size before relaxing)
 .debug_str     0x00000000000025cd        0xa /Users/ap/SDKs/nacl/pepper_31/toolchain/mac_x86_newlib/bin/../lib/gcc/x86_64-nacl/4.4.3/../../../../x86_64-nacl/lib/../lib32/libnacl.a(sysconf.o)
                                        0x1f8 (size before relaxing)
 .debug_str     0x00000000000025d7       0x29 /Users/ap/SDKs/nacl/pepper_31/toolchain/mac_x86_newlib/bin/../lib/gcc/x86_64-nacl/4.4.3/../../../../x86_64-nacl/lib/../lib32/libnacl.a(nacl_tls_init.o)
                                        0x19b (size before relaxing)
 .debug_str     0x0000000000002600        0x8 /Users/ap/SDKs/nacl/pepper_31/toolchain/mac_x86_newlib/bin/../lib/gcc/x86_64-nacl/4.4.3/../../../../x86_64-nacl/lib/../lib32/libnacl.a(close.o)
                                        0x1c8 (size before relaxing)
 .debug_str     0x0000000000002608       0xdd /Users/ap/SDKs/nacl/pepper_31/toolchain/mac_x86_newlib/bin/../lib/gcc/x86_64-nacl/4.4.3/../../../../x86_64-nacl/lib/../lib32/libnacl.a(fstat.o)
                                        0x2fc (size before relaxing)
 .debug_str     0x00000000000026e5        0xe /Users/ap/SDKs/nacl/pepper_31/toolchain/mac_x86_newlib/bin/../lib/gcc/x86_64-nacl/4.4.3/../../../../x86_64-nacl/lib/../lib32/libnacl.a(lseek.o)
                                        0x1e3 (size before relaxing)
 .debug_str     0x0000000000000000        0xe /Users/ap/SDKs/nacl/pepper_31/toolchain/mac_x86_newlib/bin/../lib/gcc/x86_64-nacl/4.4.3/../../../../x86_64-nacl/lib/../lib32/libnacl.a(read.o)
                                        0x1d3 (size before relaxing)
 .debug_str     0x00000000000026f3      0x13c /Users/ap/SDKs/nacl/pepper_31/toolchain/mac_x86_newlib/bin/../lib/gcc/x86_64-nacl/4.4.3/32/libgcc.a(_udivdi3.o)
                                        0x22f (size before relaxing)
 .debug_str     0x000000000000282f        0xa /Users/ap/SDKs/nacl/pepper_31/toolchain/mac_x86_newlib/bin/../lib/gcc/x86_64-nacl/4.4.3/32/libgcc.a(_umoddi3.o)
                                        0x22f (size before relaxing)

.debug_loc      0x0000000000000000     0x6a45
 *(.debug_loc)
 .debug_loc     0x0000000000000000       0x2c /Users/ap/SDKs/nacl/pepper_31/toolchain/mac_x86_newlib/bin/../lib/gcc/x86_64-nacl/4.4.3/../../../../x86_64-nacl/lib/../lib32/libppapi_stub.a(plugin_main_irt.o)
 .debug_loc     0x000000000000002c       0x20 /Users/ap/SDKs/nacl/pepper_31/toolchain/mac_x86_newlib/bin/../lib/gcc/x86_64-nacl/4.4.3/../../../../x86_64-nacl/lib/../lib32/libppapi_stub.a(ppapi_plugin_main.o)
 .debug_loc     0x000000000000004c       0xd0 /Users/ap/SDKs/nacl/pepper_31/toolchain/mac_x86_newlib/bin/../lib/gcc/x86_64-nacl/4.4.3/../../../../x86_64-nacl/lib/../lib32/libppapi_stub.a(ppapi_plugin_start.o)
 .debug_loc     0x000000000000011c       0x60 /Users/ap/SDKs/nacl/pepper_31/toolchain/mac_x86_newlib/bin/../lib/gcc/x86_64-nacl/4.4.3/../../../../x86_64-nacl/lib/../lib32/libppapi_stub.a(thread_creator.o)
 .debug_loc     0x000000000000017c      0xb80 /Users/ap/SDKs/nacl/pepper_31/toolchain/mac_x86_newlib/bin/../lib/gcc/x86_64-nacl/4.4.3/../../../../x86_64-nacl/lib/../lib32/libpthread.a(nc_thread.o)
 .debug_loc     0x0000000000000cfc      0x18c /Users/ap/SDKs/nacl/pepper_31/toolchain/mac_x86_newlib/bin/../lib/gcc/x86_64-nacl/4.4.3/../../../../x86_64-nacl/lib/../lib32/libpthread.a(nc_condvar.o)
 .debug_loc     0x0000000000000e88       0x72 /Users/ap/SDKs/nacl/pepper_31/toolchain/mac_x86_newlib/bin/../lib/gcc/x86_64-nacl/4.4.3/../../../../x86_64-nacl/lib/../lib32/libpthread.a(dynamic_annotations.o)
 .debug_loc     0x0000000000000efa      0x2ff /Users/ap/SDKs/nacl/pepper_31/toolchain/mac_x86_newlib/bin/../lib/gcc/x86_64-nacl/4.4.3/../../../../x86_64-nacl/lib/../lib32/libpthread.a(nc_mutex.o)
 .debug_loc     0x00000000000011f9       0x20 /Users/ap/SDKs/nacl/pepper_31/toolchain/mac_x86_newlib/bin/../lib/gcc/x86_64-nacl/4.4.3/../../../../x86_64-nacl/lib/../lib32/libpthread.a(nc_init_irt.o)
 .debug_loc     0x0000000000001219       0x20 /Users/ap/SDKs/nacl/pepper_31/toolchain/mac_x86_newlib/bin/../lib/gcc/x86_64-nacl/4.4.3/../../../../x86_64-nacl/lib/../lib32/libnacl.a(_exit.o)
 .debug_loc     0x0000000000001239       0x51 /Users/ap/SDKs/nacl/pepper_31/toolchain/mac_x86_newlib/bin/../lib/gcc/x86_64-nacl/4.4.3/../../../../x86_64-nacl/lib/../lib32/libnacl.a(start.o)
 .debug_loc     0x000000000000128a     0x4c5b /Users/ap/SDKs/nacl/pepper_31/toolchain/mac_x86_newlib/bin/../lib/gcc/x86_64-nacl/4.4.3/../../../../x86_64-nacl/lib/../lib32/libnacl.a(malloc.o)
 .debug_loc     0x0000000000005ee5      0x153 /Users/ap/SDKs/nacl/pepper_31/toolchain/mac_x86_newlib/bin/../lib/gcc/x86_64-nacl/4.4.3/../../../../x86_64-nacl/lib/../lib32/libnacl.a(nacl_irt.o)
 .debug_loc     0x0000000000006038       0xa6 /Users/ap/SDKs/nacl/pepper_31/toolchain/mac_x86_newlib/bin/../lib/gcc/x86_64-nacl/4.4.3/../../../../x86_64-nacl/lib/../lib32/libnacl.a(pthread_initialize_minimal.o)
 .debug_loc     0x00000000000060de       0x13 /Users/ap/SDKs/nacl/pepper_31/toolchain/mac_x86_newlib/bin/../lib/gcc/x86_64-nacl/4.4.3/../../../../x86_64-nacl/lib/../lib32/libnacl.a(nacl_read_tp.o)
 .debug_loc     0x00000000000060f1       0x7b /Users/ap/SDKs/nacl/pepper_31/toolchain/mac_x86_newlib/bin/../lib/gcc/x86_64-nacl/4.4.3/../../../../x86_64-nacl/lib/../lib32/libnacl.a(mmap.o)
 .debug_loc     0x000000000000616c       0x4a /Users/ap/SDKs/nacl/pepper_31/toolchain/mac_x86_newlib/bin/../lib/gcc/x86_64-nacl/4.4.3/../../../../x86_64-nacl/lib/../lib32/libnacl.a(sched_yield.o)
 .debug_loc     0x00000000000061b6       0x4a /Users/ap/SDKs/nacl/pepper_31/toolchain/mac_x86_newlib/bin/../lib/gcc/x86_64-nacl/4.4.3/../../../../x86_64-nacl/lib/../lib32/libnacl.a(munmap.o)
 .debug_loc     0x0000000000006200      0x13b /Users/ap/SDKs/nacl/pepper_31/toolchain/mac_x86_newlib/bin/../lib/gcc/x86_64-nacl/4.4.3/../../../../x86_64-nacl/lib/../lib32/libnacl.a(tls.o)
 .debug_loc     0x000000000000633b       0x5e /Users/ap/SDKs/nacl/pepper_31/toolchain/mac_x86_newlib/bin/../lib/gcc/x86_64-nacl/4.4.3/../../../../x86_64-nacl/lib/../lib32/libnacl.a(write.o)
 .debug_loc     0x0000000000006399       0x5e /Users/ap/SDKs/nacl/pepper_31/toolchain/mac_x86_newlib/bin/../lib/gcc/x86_64-nacl/4.4.3/../../../../x86_64-nacl/lib/../lib32/libnacl.a(sysconf.o)
 .debug_loc     0x00000000000063f7       0x20 /Users/ap/SDKs/nacl/pepper_31/toolchain/mac_x86_newlib/bin/../lib/gcc/x86_64-nacl/4.4.3/../../../../x86_64-nacl/lib/../lib32/libnacl.a(nacl_tls_init.o)
 .debug_loc     0x0000000000006417       0x4a /Users/ap/SDKs/nacl/pepper_31/toolchain/mac_x86_newlib/bin/../lib/gcc/x86_64-nacl/4.4.3/../../../../x86_64-nacl/lib/../lib32/libnacl.a(close.o)
 .debug_loc     0x0000000000006461       0x4a /Users/ap/SDKs/nacl/pepper_31/toolchain/mac_x86_newlib/bin/../lib/gcc/x86_64-nacl/4.4.3/../../../../x86_64-nacl/lib/../lib32/libnacl.a(fstat.o)
 .debug_loc     0x00000000000064ab       0x5f /Users/ap/SDKs/nacl/pepper_31/toolchain/mac_x86_newlib/bin/../lib/gcc/x86_64-nacl/4.4.3/../../../../x86_64-nacl/lib/../lib32/libnacl.a(lseek.o)
 .debug_loc     0x000000000000650a       0x5e /Users/ap/SDKs/nacl/pepper_31/toolchain/mac_x86_newlib/bin/../lib/gcc/x86_64-nacl/4.4.3/../../../../x86_64-nacl/lib/../lib32/libnacl.a(read.o)
 .debug_loc     0x0000000000006568      0x23e /Users/ap/SDKs/nacl/pepper_31/toolchain/mac_x86_newlib/bin/../lib/gcc/x86_64-nacl/4.4.3/32/libgcc.a(_udivdi3.o)
 .debug_loc     0x00000000000067a6      0x29f /Users/ap/SDKs/nacl/pepper_31/toolchain/mac_x86_newlib/bin/../lib/gcc/x86_64-nacl/4.4.3/32/libgcc.a(_umoddi3.o)

.debug_macinfo
 *(.debug_macinfo)

.debug_weaknames
 *(.debug_weaknames)

.debug_funcnames
 *(.debug_funcnames)

.debug_typenames
 *(.debug_typenames)

.debug_varnames
 *(.debug_varnames)

.debug_pubtypes
 *(.debug_pubtypes)

.debug_ranges   0x0000000000000000     0x1a78
 *(.debug_ranges)
 .debug_ranges  0x0000000000000000       0x20 /Users/ap/SDKs/nacl/pepper_31/toolchain/mac_x86_newlib/bin/../lib/gcc/x86_64-nacl/4.4.3/../../../../x86_64-nacl/lib/../lib32/crti.o
 .debug_ranges  0x0000000000000020      0x220 /Users/ap/SDKs/nacl/pepper_31/toolchain/mac_x86_newlib/bin/../lib/gcc/x86_64-nacl/4.4.3/../../../../x86_64-nacl/lib/../lib32/libpthread.a(nc_thread.o)
 .debug_ranges  0x0000000000000240       0x20 /Users/ap/SDKs/nacl/pepper_31/toolchain/mac_x86_newlib/bin/../lib/gcc/x86_64-nacl/4.4.3/../../../../x86_64-nacl/lib/../lib32/libpthread.a(nc_mutex.o)
 .debug_ranges  0x0000000000000260       0x30 /Users/ap/SDKs/nacl/pepper_31/toolchain/mac_x86_newlib/bin/../lib/gcc/x86_64-nacl/4.4.3/../../../../x86_64-nacl/lib/../lib32/libnacl.a(start.o)
 .debug_ranges  0x0000000000000290     0x15e0 /Users/ap/SDKs/nacl/pepper_31/toolchain/mac_x86_newlib/bin/../lib/gcc/x86_64-nacl/4.4.3/../../../../x86_64-nacl/lib/../lib32/libnacl.a(malloc.o)
 .debug_ranges  0x0000000000001870       0x18 /Users/ap/SDKs/nacl/pepper_31/toolchain/mac_x86_newlib/bin/../lib/gcc/x86_64-nacl/4.4.3/../../../../x86_64-nacl/lib/../lib32/libnacl.a(nacl_irt.o)
 .debug_ranges  0x0000000000001888       0xd8 /Users/ap/SDKs/nacl/pepper_31/toolchain/mac_x86_newlib/bin/../lib/gcc/x86_64-nacl/4.4.3/../../../../x86_64-nacl/lib/../lib32/libnacl.a(tls.o)
 .debug_ranges  0x0000000000001960       0x70 /Users/ap/SDKs/nacl/pepper_31/toolchain/mac_x86_newlib/bin/../lib/gcc/x86_64-nacl/4.4.3/32/libgcc.a(_udivdi3.o)
 .debug_ranges  0x00000000000019d0       0x88 /Users/ap/SDKs/nacl/pepper_31/toolchain/mac_x86_newlib/bin/../lib/gcc/x86_64-nacl/4.4.3/32/libgcc.a(_umoddi3.o)
 .debug_ranges  0x0000000000001a58       0x20 /Users/ap/SDKs/nacl/pepper_31/toolchain/mac_x86_newlib/bin/../lib/gcc/x86_64-nacl/4.4.3/../../../../x86_64-nacl/lib/../lib32/crtn.o

.gnu.attributes
 *(.gnu.attributes)

/DISCARD/
 *(.note.GNU-stack)
 *(.gnu_debuglink)
OUTPUT(newlib/Release/faces_unstripped_x86_32.nexe elf32-nacl)
